Archive member included because of file (symbol)

c:/program files/microchip/xc32/v1.31/bin/../lib/gcc/pic32mx/4.5.2/../../../../pic32mx/lib\libmchp_peripheral.a(read_core_timer_lib.o)
                              build/XC32-PIC32_ETH_SK_ETH795/production/_ext/1840844407/ETHPIC32ExtPhy.o (ReadCoreTimer)
c:/program files/microchip/xc32/v1.31/bin/../lib/gcc/pic32mx/4.5.2/../../../../pic32mx/lib\libmchp_peripheral_32MX795F512L.a(eth_ack_packet_lib.o)
                              build/XC32-PIC32_ETH_SK_ETH795/production/_ext/1840844407/ETHPIC32IntMac.o (EthRxAcknowledgeBuffer)
c:/program files/microchip/xc32/v1.31/bin/../lib/gcc/pic32mx/4.5.2/../../../../pic32mx/lib\libmchp_peripheral_32MX795F512L.a(eth_descriptors_add_lib.o)
                              build/XC32-PIC32_ETH_SK_ETH795/production/_ext/1840844407/ETHPIC32IntMac.o (EthDescriptorsPoolAdd)
c:/program files/microchip/xc32/v1.31/bin/../lib/gcc/pic32mx/4.5.2/../../../../pic32mx/lib\libmchp_peripheral_32MX795F512L.a(eth_init_lib.o)
                              build/XC32-PIC32_ETH_SK_ETH795/production/_ext/1840844407/ETHPIC32IntMac.o (EthInit)
c:/program files/microchip/xc32/v1.31/bin/../lib/gcc/pic32mx/4.5.2/../../../../pic32mx/lib\libmchp_peripheral_32MX795F512L.a(eth_mac_open_lib.o)
                              build/XC32-PIC32_ETH_SK_ETH795/production/_ext/1840844407/ETHPIC32IntMac.o (EthMACOpen)
c:/program files/microchip/xc32/v1.31/bin/../lib/gcc/pic32mx/4.5.2/../../../../pic32mx/lib\libmchp_peripheral_32MX795F512L.a(eth_mac_set_address_max_lib.o)
                              build/XC32-PIC32_ETH_SK_ETH795/production/_ext/1840844407/ETHPIC32IntMac.o (EthMACSetAddress)
c:/program files/microchip/xc32/v1.31/bin/../lib/gcc/pic32mx/4.5.2/../../../../pic32mx/lib\libmchp_peripheral_32MX795F512L.a(eth_rx_buffers_append_lib.o)
                              build/XC32-PIC32_ETH_SK_ETH795/production/_ext/1840844407/ETHPIC32IntMac.o (EthRxBuffersAppend)
c:/program files/microchip/xc32/v1.31/bin/../lib/gcc/pic32mx/4.5.2/../../../../pic32mx/lib\libmchp_peripheral_32MX795F512L.a(eth_rx_filters_lib.o)
                              build/XC32-PIC32_ETH_SK_ETH795/production/_ext/1840844407/ETHPIC32IntMac.o (EthRxFiltersSet)
c:/program files/microchip/xc32/v1.31/bin/../lib/gcc/pic32mx/4.5.2/../../../../pic32mx/lib\libmchp_peripheral_32MX795F512L.a(eth_rx_get_packet_lib.o)
                              build/XC32-PIC32_ETH_SK_ETH795/production/_ext/1840844407/ETHPIC32IntMac.o (EthRxGetBuffer)
c:/program files/microchip/xc32/v1.31/bin/../lib/gcc/pic32mx/4.5.2/../../../../pic32mx/lib\libmchp_peripheral_32MX795F512L.a(eth_rx_set_buffer_size_lib.o)
                              build/XC32-PIC32_ETH_SK_ETH795/production/_ext/1840844407/ETHPIC32IntMac.o (EthRxSetBufferSize)
c:/program files/microchip/xc32/v1.31/bin/../lib/gcc/pic32mx/4.5.2/../../../../pic32mx/lib\libmchp_peripheral_32MX795F512L.a(eth_tx_packet_lib.o)
                              build/XC32-PIC32_ETH_SK_ETH795/production/_ext/1840844407/ETHPIC32IntMac.o (EthTxSendBuffer)
c:/program files/microchip/xc32/v1.31/bin/../lib/gcc/pic32mx/4.5.2/../../../../pic32mx/lib\libmchp_peripheral_32MX795F512L.a(_eth_append_busy_list_lib.o)
                              c:/program files/microchip/xc32/v1.31/bin/../lib/gcc/pic32mx/4.5.2/../../../../pic32mx/lib\libmchp_peripheral_32MX795F512L.a(eth_ack_packet_lib.o) (_EthAppendBusyList)
c:/program files/microchip/xc32/v1.31/bin/../lib/gcc/pic32mx/4.5.2/../../../../pic32mx/lib\libmchp_peripheral_32MX795F512L.a(eth_miim_access.o)
                              build/XC32-PIC32_ETH_SK_ETH795/production/_ext/1840844407/ETHPIC32ExtPhy.o (EthMIIMReadStart)
c:/program files/microchip/xc32/v1.31/bin/../lib/gcc/pic32mx/4.5.2/../../../../pic32mx/lib\libmchp_peripheral_32MX795F512L.a(soft_reset_lib.o)
                              build/XC32-PIC32_ETH_SK_ETH795/production/_ext/1840844407/Reboot.o (SoftReset)
c:/program files/microchip/xc32/v1.31/bin/../lib/gcc/pic32mx/4.5.2/../../../../pic32mx/lib\libmchp_peripheral_32MX795F512L.a(pcache.o)
                              build/XC32-PIC32_ETH_SK_ETH795/production/_ext/1360937237/Main.o (CheKseg0CacheOn)
c:/program files/microchip/xc32/v1.31/bin/../lib/gcc/pic32mx/4.5.2/../../../../pic32mx/lib\libmchp_peripheral_32MX795F512L.a(int_disable_interrupts_lib.o)
                              build/XC32-PIC32_ETH_SK_ETH795/production/_ext/1360937237/Main.o (INTDisableInterrupts)
c:/program files/microchip/xc32/v1.31/bin/../lib/gcc/pic32mx/4.5.2/../../../../pic32mx/lib\libmchp_peripheral_32MX795F512L.a(int_restore_interrupts_lib.o)
                              build/XC32-PIC32_ETH_SK_ETH795/production/_ext/1360937237/Main.o (INTRestoreInterrupts)
c:/program files/microchip/xc32/v1.31/bin/../lib/gcc/pic32mx/4.5.2/../../../../pic32mx/lib\libmchp_peripheral_32MX795F512L.a(int_enable_mv_int_lib.o)
                              build/XC32-PIC32_ETH_SK_ETH795/production/_ext/1360937237/Main.o (INTEnableSystemMultiVectoredInt)
c:/program files/microchip/xc32/v1.31/bin/../lib/gcc/pic32mx/4.5.2/../../../../pic32mx/lib\libmchp_peripheral_32MX795F512L.a(int_tbl_lib.o)
                              c:/program files/microchip/xc32/v1.31/bin/../lib/gcc/pic32mx/4.5.2/../../../../pic32mx/lib\libmchp_peripheral_32MX795F512L.a(eth_init_lib.o) (INTClearFlag)
c:/program files/microchip/xc32/v1.31/bin/../lib/gcc/pic32mx/4.5.2/../../../../pic32mx/lib\libmchp_peripheral_32MX795F512L.a(port_set_pins_digital_in_lib.o)
                              build/XC32-PIC32_ETH_SK_ETH795/production/_ext/1840844407/ETHPIC32ExtPhy.o (PORTSetPinsDigitalIn)
c:/program files/microchip/xc32/v1.31/bin/../lib/gcc/pic32mx/4.5.2/../../../../pic32mx/lib\libmchp_peripheral_32MX795F512L.a(port_set_pins_digital_out_lib.o)
                              build/XC32-PIC32_ETH_SK_ETH795/production/_ext/1840844407/ETHPIC32ExtPhy.o (PORTSetPinsDigitalOut)
c:/program files/microchip/xc32/v1.31/bin/../lib/gcc/pic32mx/4.5.2/../../../../pic32mx/lib\libmchp_peripheral_32MX795F512L.a(_ports_tbl_libp.o)
                              c:/program files/microchip/xc32/v1.31/bin/../lib/gcc/pic32mx/4.5.2/../../../../pic32mx/lib\libmchp_peripheral_32MX795F512L.a(port_set_pins_digital_in_lib.o) (PortRegTbl)
c:/program files/microchip/xc32/v1.31/bin/../lib/gcc/pic32mx/4.5.2/../../../../pic32mx/lib\libmchp_peripheral_32MX795F512L.a(int_enable_interrupts_lib.o)
                              c:/program files/microchip/xc32/v1.31/bin/../lib/gcc/pic32mx/4.5.2/../../../../pic32mx/lib\libmchp_peripheral_32MX795F512L.a(int_enable_mv_int_lib.o) (INTEnableInterrupts)
c:/program files/microchip/xc32/v1.31/bin/../lib/gcc/pic32mx/4.5.2\libgcc.a(_udivdi3.o)
                              build/XC32-PIC32_ETH_SK_ETH795/production/_ext/1840844407/Tick.o (__udivdi3)
c:/program files/microchip/xc32/v1.31/bin/../lib/gcc/pic32mx/4.5.2\libgcc.a(_umoddi3.o)
                              build/XC32-PIC32_ETH_SK_ETH795/production/_ext/1840844407/DHCP.o (__umoddi3)
c:/program files/microchip/xc32/v1.31/bin/../lib/gcc/pic32mx/4.5.2/../../../../pic32mx/lib\libpic32.a(memcmp.o)
                              build/XC32-PIC32_ETH_SK_ETH795/production/_ext/1840844407/ETHPIC32IntMac.o (memcmp)
c:/program files/microchip/xc32/v1.31/bin/../lib/gcc/pic32mx/4.5.2/../../../../pic32mx/lib\libpic32.a(memcpy.o)
                              build/XC32-PIC32_ETH_SK_ETH795/production/_ext/1840844407/ARP.o (memcpy)
c:/program files/microchip/xc32/v1.31/bin/../lib/gcc/pic32mx/4.5.2/../../../../pic32mx/lib\libpic32.a(memset.o)
                              build/XC32-PIC32_ETH_SK_ETH795/production/_ext/1840844407/DHCP.o (memset)
c:/program files/microchip/xc32/v1.31/bin/../lib/gcc/pic32mx/4.5.2/../../../../pic32mx/lib\libpic32.a(strcmp.o)
                              build/XC32-PIC32_ETH_SK_ETH795/production/_ext/1840844407/DynDNS.o (strcmp)
c:/program files/microchip/xc32/v1.31/bin/../lib/gcc/pic32mx/4.5.2/../../../../pic32mx/lib\libpic32.a(strlen.o)
                              build/XC32-PIC32_ETH_SK_ETH795/production/_ext/1840844407/DynDNS.o (strlen)
c:/program files/microchip/xc32/v1.31/bin/../lib/gcc/pic32mx/4.5.2/../../../../pic32mx/lib\libpic32.a(default-bootstrap-exception-handler.o)
                              c:/program files/microchip/xc32/v1.31/bin/../lib/gcc/pic32mx/4.5.2/../../../../pic32mx/lib/./proc/32MX795F512L/crt0_mips32r2.o (_bootstrap_exception_handler)
c:/program files/microchip/xc32/v1.31/bin/../lib/gcc/pic32mx/4.5.2/../../../../pic32mx/lib\libpic32.a(default-on-reset.o)
                              c:/program files/microchip/xc32/v1.31/bin/../lib/gcc/pic32mx/4.5.2/../../../../pic32mx/lib/./proc/32MX795F512L/crt0_mips32r2.o (_on_reset)
c:/program files/microchip/xc32/v1.31/bin/../lib/gcc/pic32mx/4.5.2/../../../../pic32mx/lib\libpic32.a(default-on-bootstrap.o)
                              c:/program files/microchip/xc32/v1.31/bin/../lib/gcc/pic32mx/4.5.2/../../../../pic32mx/lib/./proc/32MX795F512L/crt0_mips32r2.o (_on_bootstrap)
c:/program files/microchip/xc32/v1.31/bin/../lib/gcc/pic32mx/4.5.2/../../../../pic32mx/lib\libpic32.a(default-nmi-handler.o)
                              c:/program files/microchip/xc32/v1.31/bin/../lib/gcc/pic32mx/4.5.2/../../../../pic32mx/lib/./proc/32MX795F512L/crt0_mips32r2.o (_nmi_handler)
c:/program files/microchip/xc32/v1.31/bin/../lib/gcc/pic32mx/4.5.2/../../../../pic32mx/lib\libpic32.a(pic32_software_reset.o)
                              c:/program files/microchip/xc32/v1.31/bin/../lib/gcc/pic32mx/4.5.2/../../../../pic32mx/lib\libpic32.a(default-bootstrap-exception-handler.o) (__pic32_software_reset)
c:/program files/microchip/xc32/v1.31/bin/../lib/gcc/pic32mx/4.5.2/../../../../pic32mx/lib\libpic32.a(general-exception.o)
                              c:/program files/microchip/xc32/v1.31/bin/../lib/gcc/pic32mx/4.5.2/../../../../pic32mx/lib/./proc/32MX795F512L/crt0_mips32r2.o (_general_exception_context)
c:/program files/microchip/xc32/v1.31/bin/../lib/gcc/pic32mx/4.5.2/../../../../pic32mx/lib\libpic32.a(vector0.o)
                              c:/program files/microchip/xc32/v1.31/bin/../lib/gcc/pic32mx/4.5.2/../../../../pic32mx/lib/./proc/32MX795F512L\default_isr_vectors.o (__vector_dispatch_0)
c:/program files/microchip/xc32/v1.31/bin/../lib/gcc/pic32mx/4.5.2/../../../../pic32mx/lib\libpic32.a(vector1.o)
                              c:/program files/microchip/xc32/v1.31/bin/../lib/gcc/pic32mx/4.5.2/../../../../pic32mx/lib/./proc/32MX795F512L\default_isr_vectors.o (__vector_dispatch_1)
c:/program files/microchip/xc32/v1.31/bin/../lib/gcc/pic32mx/4.5.2/../../../../pic32mx/lib\libpic32.a(vector2.o)
                              c:/program files/microchip/xc32/v1.31/bin/../lib/gcc/pic32mx/4.5.2/../../../../pic32mx/lib/./proc/32MX795F512L\default_isr_vectors.o (__vector_dispatch_2)
c:/program files/microchip/xc32/v1.31/bin/../lib/gcc/pic32mx/4.5.2/../../../../pic32mx/lib\libpic32.a(vector3.o)
                              c:/program files/microchip/xc32/v1.31/bin/../lib/gcc/pic32mx/4.5.2/../../../../pic32mx/lib/./proc/32MX795F512L\default_isr_vectors.o (__vector_dispatch_3)
c:/program files/microchip/xc32/v1.31/bin/../lib/gcc/pic32mx/4.5.2/../../../../pic32mx/lib\libpic32.a(vector5.o)
                              c:/program files/microchip/xc32/v1.31/bin/../lib/gcc/pic32mx/4.5.2/../../../../pic32mx/lib/./proc/32MX795F512L\default_isr_vectors.o (__vector_dispatch_5)
c:/program files/microchip/xc32/v1.31/bin/../lib/gcc/pic32mx/4.5.2/../../../../pic32mx/lib\libpic32.a(vector6.o)
                              c:/program files/microchip/xc32/v1.31/bin/../lib/gcc/pic32mx/4.5.2/../../../../pic32mx/lib/./proc/32MX795F512L\default_isr_vectors.o (__vector_dispatch_6)
c:/program files/microchip/xc32/v1.31/bin/../lib/gcc/pic32mx/4.5.2/../../../../pic32mx/lib\libpic32.a(vector7.o)
                              c:/program files/microchip/xc32/v1.31/bin/../lib/gcc/pic32mx/4.5.2/../../../../pic32mx/lib/./proc/32MX795F512L\default_isr_vectors.o (__vector_dispatch_7)
c:/program files/microchip/xc32/v1.31/bin/../lib/gcc/pic32mx/4.5.2/../../../../pic32mx/lib\libpic32.a(vector8.o)
                              c:/program files/microchip/xc32/v1.31/bin/../lib/gcc/pic32mx/4.5.2/../../../../pic32mx/lib/./proc/32MX795F512L\default_isr_vectors.o (__vector_dispatch_8)
c:/program files/microchip/xc32/v1.31/bin/../lib/gcc/pic32mx/4.5.2/../../../../pic32mx/lib\libpic32.a(vector9.o)
                              c:/program files/microchip/xc32/v1.31/bin/../lib/gcc/pic32mx/4.5.2/../../../../pic32mx/lib/./proc/32MX795F512L\default_isr_vectors.o (__vector_dispatch_9)
c:/program files/microchip/xc32/v1.31/bin/../lib/gcc/pic32mx/4.5.2/../../../../pic32mx/lib\libpic32.a(vector10.o)
                              c:/program files/microchip/xc32/v1.31/bin/../lib/gcc/pic32mx/4.5.2/../../../../pic32mx/lib/./proc/32MX795F512L\default_isr_vectors.o (__vector_dispatch_10)
c:/program files/microchip/xc32/v1.31/bin/../lib/gcc/pic32mx/4.5.2/../../../../pic32mx/lib\libpic32.a(vector11.o)
                              c:/program files/microchip/xc32/v1.31/bin/../lib/gcc/pic32mx/4.5.2/../../../../pic32mx/lib/./proc/32MX795F512L\default_isr_vectors.o (__vector_dispatch_11)
c:/program files/microchip/xc32/v1.31/bin/../lib/gcc/pic32mx/4.5.2/../../../../pic32mx/lib\libpic32.a(vector12.o)
                              c:/program files/microchip/xc32/v1.31/bin/../lib/gcc/pic32mx/4.5.2/../../../../pic32mx/lib/./proc/32MX795F512L\default_isr_vectors.o (__vector_dispatch_12)
c:/program files/microchip/xc32/v1.31/bin/../lib/gcc/pic32mx/4.5.2/../../../../pic32mx/lib\libpic32.a(vector13.o)
                              c:/program files/microchip/xc32/v1.31/bin/../lib/gcc/pic32mx/4.5.2/../../../../pic32mx/lib/./proc/32MX795F512L\default_isr_vectors.o (__vector_dispatch_13)
c:/program files/microchip/xc32/v1.31/bin/../lib/gcc/pic32mx/4.5.2/../../../../pic32mx/lib\libpic32.a(vector14.o)
                              c:/program files/microchip/xc32/v1.31/bin/../lib/gcc/pic32mx/4.5.2/../../../../pic32mx/lib/./proc/32MX795F512L\default_isr_vectors.o (__vector_dispatch_14)
c:/program files/microchip/xc32/v1.31/bin/../lib/gcc/pic32mx/4.5.2/../../../../pic32mx/lib\libpic32.a(vector15.o)
                              c:/program files/microchip/xc32/v1.31/bin/../lib/gcc/pic32mx/4.5.2/../../../../pic32mx/lib/./proc/32MX795F512L\default_isr_vectors.o (__vector_dispatch_15)
c:/program files/microchip/xc32/v1.31/bin/../lib/gcc/pic32mx/4.5.2/../../../../pic32mx/lib\libpic32.a(vector16.o)
                              c:/program files/microchip/xc32/v1.31/bin/../lib/gcc/pic32mx/4.5.2/../../../../pic32mx/lib/./proc/32MX795F512L\default_isr_vectors.o (__vector_dispatch_16)
c:/program files/microchip/xc32/v1.31/bin/../lib/gcc/pic32mx/4.5.2/../../../../pic32mx/lib\libpic32.a(vector17.o)
                              c:/program files/microchip/xc32/v1.31/bin/../lib/gcc/pic32mx/4.5.2/../../../../pic32mx/lib/./proc/32MX795F512L\default_isr_vectors.o (__vector_dispatch_17)
c:/program files/microchip/xc32/v1.31/bin/../lib/gcc/pic32mx/4.5.2/../../../../pic32mx/lib\libpic32.a(vector18.o)
                              c:/program files/microchip/xc32/v1.31/bin/../lib/gcc/pic32mx/4.5.2/../../../../pic32mx/lib/./proc/32MX795F512L\default_isr_vectors.o (__vector_dispatch_18)
c:/program files/microchip/xc32/v1.31/bin/../lib/gcc/pic32mx/4.5.2/../../../../pic32mx/lib\libpic32.a(vector19.o)
                              c:/program files/microchip/xc32/v1.31/bin/../lib/gcc/pic32mx/4.5.2/../../../../pic32mx/lib/./proc/32MX795F512L\default_isr_vectors.o (__vector_dispatch_19)
c:/program files/microchip/xc32/v1.31/bin/../lib/gcc/pic32mx/4.5.2/../../../../pic32mx/lib\libpic32.a(vector20.o)
                              c:/program files/microchip/xc32/v1.31/bin/../lib/gcc/pic32mx/4.5.2/../../../../pic32mx/lib/./proc/32MX795F512L\default_isr_vectors.o (__vector_dispatch_20)
c:/program files/microchip/xc32/v1.31/bin/../lib/gcc/pic32mx/4.5.2/../../../../pic32mx/lib\libpic32.a(vector21.o)
                              c:/program files/microchip/xc32/v1.31/bin/../lib/gcc/pic32mx/4.5.2/../../../../pic32mx/lib/./proc/32MX795F512L\default_isr_vectors.o (__vector_dispatch_21)
c:/program files/microchip/xc32/v1.31/bin/../lib/gcc/pic32mx/4.5.2/../../../../pic32mx/lib\libpic32.a(vector22.o)
                              c:/program files/microchip/xc32/v1.31/bin/../lib/gcc/pic32mx/4.5.2/../../../../pic32mx/lib/./proc/32MX795F512L\default_isr_vectors.o (__vector_dispatch_22)
c:/program files/microchip/xc32/v1.31/bin/../lib/gcc/pic32mx/4.5.2/../../../../pic32mx/lib\libpic32.a(vector23.o)
                              c:/program files/microchip/xc32/v1.31/bin/../lib/gcc/pic32mx/4.5.2/../../../../pic32mx/lib/./proc/32MX795F512L\default_isr_vectors.o (__vector_dispatch_23)
c:/program files/microchip/xc32/v1.31/bin/../lib/gcc/pic32mx/4.5.2/../../../../pic32mx/lib\libpic32.a(vector24.o)
                              c:/program files/microchip/xc32/v1.31/bin/../lib/gcc/pic32mx/4.5.2/../../../../pic32mx/lib/./proc/32MX795F512L\default_isr_vectors.o (__vector_dispatch_24)
c:/program files/microchip/xc32/v1.31/bin/../lib/gcc/pic32mx/4.5.2/../../../../pic32mx/lib\libpic32.a(vector25.o)
                              c:/program files/microchip/xc32/v1.31/bin/../lib/gcc/pic32mx/4.5.2/../../../../pic32mx/lib/./proc/32MX795F512L\default_isr_vectors.o (__vector_dispatch_25)
c:/program files/microchip/xc32/v1.31/bin/../lib/gcc/pic32mx/4.5.2/../../../../pic32mx/lib\libpic32.a(vector26.o)
                              c:/program files/microchip/xc32/v1.31/bin/../lib/gcc/pic32mx/4.5.2/../../../../pic32mx/lib/./proc/32MX795F512L\default_isr_vectors.o (__vector_dispatch_26)
c:/program files/microchip/xc32/v1.31/bin/../lib/gcc/pic32mx/4.5.2/../../../../pic32mx/lib\libpic32.a(vector27.o)
                              c:/program files/microchip/xc32/v1.31/bin/../lib/gcc/pic32mx/4.5.2/../../../../pic32mx/lib/./proc/32MX795F512L\default_isr_vectors.o (__vector_dispatch_27)
c:/program files/microchip/xc32/v1.31/bin/../lib/gcc/pic32mx/4.5.2/../../../../pic32mx/lib\libpic32.a(vector28.o)
                              c:/program files/microchip/xc32/v1.31/bin/../lib/gcc/pic32mx/4.5.2/../../../../pic32mx/lib/./proc/32MX795F512L\default_isr_vectors.o (__vector_dispatch_28)
c:/program files/microchip/xc32/v1.31/bin/../lib/gcc/pic32mx/4.5.2/../../../../pic32mx/lib\libpic32.a(vector29.o)
                              c:/program files/microchip/xc32/v1.31/bin/../lib/gcc/pic32mx/4.5.2/../../../../pic32mx/lib/./proc/32MX795F512L\default_isr_vectors.o (__vector_dispatch_29)
c:/program files/microchip/xc32/v1.31/bin/../lib/gcc/pic32mx/4.5.2/../../../../pic32mx/lib\libpic32.a(vector30.o)
                              c:/program files/microchip/xc32/v1.31/bin/../lib/gcc/pic32mx/4.5.2/../../../../pic32mx/lib/./proc/32MX795F512L\default_isr_vectors.o (__vector_dispatch_30)
c:/program files/microchip/xc32/v1.31/bin/../lib/gcc/pic32mx/4.5.2/../../../../pic32mx/lib\libpic32.a(vector31.o)
                              c:/program files/microchip/xc32/v1.31/bin/../lib/gcc/pic32mx/4.5.2/../../../../pic32mx/lib/./proc/32MX795F512L\default_isr_vectors.o (__vector_dispatch_31)
c:/program files/microchip/xc32/v1.31/bin/../lib/gcc/pic32mx/4.5.2/../../../../pic32mx/lib\libpic32.a(vector32.o)
                              c:/program files/microchip/xc32/v1.31/bin/../lib/gcc/pic32mx/4.5.2/../../../../pic32mx/lib/./proc/32MX795F512L\default_isr_vectors.o (__vector_dispatch_32)
c:/program files/microchip/xc32/v1.31/bin/../lib/gcc/pic32mx/4.5.2/../../../../pic32mx/lib\libpic32.a(vector33.o)
                              c:/program files/microchip/xc32/v1.31/bin/../lib/gcc/pic32mx/4.5.2/../../../../pic32mx/lib/./proc/32MX795F512L\default_isr_vectors.o (__vector_dispatch_33)
c:/program files/microchip/xc32/v1.31/bin/../lib/gcc/pic32mx/4.5.2/../../../../pic32mx/lib\libpic32.a(vector34.o)
                              c:/program files/microchip/xc32/v1.31/bin/../lib/gcc/pic32mx/4.5.2/../../../../pic32mx/lib/./proc/32MX795F512L\default_isr_vectors.o (__vector_dispatch_34)
c:/program files/microchip/xc32/v1.31/bin/../lib/gcc/pic32mx/4.5.2/../../../../pic32mx/lib\libpic32.a(vector35.o)
                              c:/program files/microchip/xc32/v1.31/bin/../lib/gcc/pic32mx/4.5.2/../../../../pic32mx/lib/./proc/32MX795F512L\default_isr_vectors.o (__vector_dispatch_35)
c:/program files/microchip/xc32/v1.31/bin/../lib/gcc/pic32mx/4.5.2/../../../../pic32mx/lib\libpic32.a(vector36.o)
                              c:/program files/microchip/xc32/v1.31/bin/../lib/gcc/pic32mx/4.5.2/../../../../pic32mx/lib/./proc/32MX795F512L\default_isr_vectors.o (__vector_dispatch_36)
c:/program files/microchip/xc32/v1.31/bin/../lib/gcc/pic32mx/4.5.2/../../../../pic32mx/lib\libpic32.a(vector37.o)
                              c:/program files/microchip/xc32/v1.31/bin/../lib/gcc/pic32mx/4.5.2/../../../../pic32mx/lib/./proc/32MX795F512L\default_isr_vectors.o (__vector_dispatch_37)
c:/program files/microchip/xc32/v1.31/bin/../lib/gcc/pic32mx/4.5.2/../../../../pic32mx/lib\libpic32.a(vector38.o)
                              c:/program files/microchip/xc32/v1.31/bin/../lib/gcc/pic32mx/4.5.2/../../../../pic32mx/lib/./proc/32MX795F512L\default_isr_vectors.o (__vector_dispatch_38)
c:/program files/microchip/xc32/v1.31/bin/../lib/gcc/pic32mx/4.5.2/../../../../pic32mx/lib\libpic32.a(vector39.o)
                              c:/program files/microchip/xc32/v1.31/bin/../lib/gcc/pic32mx/4.5.2/../../../../pic32mx/lib/./proc/32MX795F512L\default_isr_vectors.o (__vector_dispatch_39)
c:/program files/microchip/xc32/v1.31/bin/../lib/gcc/pic32mx/4.5.2/../../../../pic32mx/lib\libpic32.a(vector40.o)
                              c:/program files/microchip/xc32/v1.31/bin/../lib/gcc/pic32mx/4.5.2/../../../../pic32mx/lib/./proc/32MX795F512L\default_isr_vectors.o (__vector_dispatch_40)
c:/program files/microchip/xc32/v1.31/bin/../lib/gcc/pic32mx/4.5.2/../../../../pic32mx/lib\libpic32.a(vector41.o)
                              c:/program files/microchip/xc32/v1.31/bin/../lib/gcc/pic32mx/4.5.2/../../../../pic32mx/lib/./proc/32MX795F512L\default_isr_vectors.o (__vector_dispatch_41)
c:/program files/microchip/xc32/v1.31/bin/../lib/gcc/pic32mx/4.5.2/../../../../pic32mx/lib\libpic32.a(vector42.o)
                              c:/program files/microchip/xc32/v1.31/bin/../lib/gcc/pic32mx/4.5.2/../../../../pic32mx/lib/./proc/32MX795F512L\default_isr_vectors.o (__vector_dispatch_42)
c:/program files/microchip/xc32/v1.31/bin/../lib/gcc/pic32mx/4.5.2/../../../../pic32mx/lib\libpic32.a(vector43.o)
                              c:/program files/microchip/xc32/v1.31/bin/../lib/gcc/pic32mx/4.5.2/../../../../pic32mx/lib/./proc/32MX795F512L\default_isr_vectors.o (__vector_dispatch_43)
c:/program files/microchip/xc32/v1.31/bin/../lib/gcc/pic32mx/4.5.2/../../../../pic32mx/lib\libpic32.a(vector44.o)
                              c:/program files/microchip/xc32/v1.31/bin/../lib/gcc/pic32mx/4.5.2/../../../../pic32mx/lib/./proc/32MX795F512L\default_isr_vectors.o (__vector_dispatch_44)
c:/program files/microchip/xc32/v1.31/bin/../lib/gcc/pic32mx/4.5.2/../../../../pic32mx/lib\libpic32.a(vector45.o)
                              c:/program files/microchip/xc32/v1.31/bin/../lib/gcc/pic32mx/4.5.2/../../../../pic32mx/lib/./proc/32MX795F512L\default_isr_vectors.o (__vector_dispatch_45)
c:/program files/microchip/xc32/v1.31/bin/../lib/gcc/pic32mx/4.5.2/../../../../pic32mx/lib\libpic32.a(vector46.o)
                              c:/program files/microchip/xc32/v1.31/bin/../lib/gcc/pic32mx/4.5.2/../../../../pic32mx/lib/./proc/32MX795F512L\default_isr_vectors.o (__vector_dispatch_46)
c:/program files/microchip/xc32/v1.31/bin/../lib/gcc/pic32mx/4.5.2/../../../../pic32mx/lib\libpic32.a(vector47.o)
                              c:/program files/microchip/xc32/v1.31/bin/../lib/gcc/pic32mx/4.5.2/../../../../pic32mx/lib/./proc/32MX795F512L\default_isr_vectors.o (__vector_dispatch_47)
c:/program files/microchip/xc32/v1.31/bin/../lib/gcc/pic32mx/4.5.2/../../../../pic32mx/lib\libpic32.a(vector48.o)
                              c:/program files/microchip/xc32/v1.31/bin/../lib/gcc/pic32mx/4.5.2/../../../../pic32mx/lib/./proc/32MX795F512L\default_isr_vectors.o (__vector_dispatch_48)
c:/program files/microchip/xc32/v1.31/bin/../lib/gcc/pic32mx/4.5.2/../../../../pic32mx/lib\libpic32.a(vector49.o)
                              c:/program files/microchip/xc32/v1.31/bin/../lib/gcc/pic32mx/4.5.2/../../../../pic32mx/lib/./proc/32MX795F512L\default_isr_vectors.o (__vector_dispatch_49)
c:/program files/microchip/xc32/v1.31/bin/../lib/gcc/pic32mx/4.5.2/../../../../pic32mx/lib\libpic32.a(vector50.o)
                              c:/program files/microchip/xc32/v1.31/bin/../lib/gcc/pic32mx/4.5.2/../../../../pic32mx/lib/./proc/32MX795F512L\default_isr_vectors.o (__vector_dispatch_50)
c:/program files/microchip/xc32/v1.31/bin/../lib/gcc/pic32mx/4.5.2/../../../../pic32mx/lib\libpic32.a(vector51.o)
                              c:/program files/microchip/xc32/v1.31/bin/../lib/gcc/pic32mx/4.5.2/../../../../pic32mx/lib/./proc/32MX795F512L\default_isr_vectors.o (__vector_dispatch_51)
c:/program files/microchip/xc32/v1.31/bin/../lib/gcc/pic32mx/4.5.2/../../../../pic32mx/lib\libpic32.a(vector52.o)
                              c:/program files/microchip/xc32/v1.31/bin/../lib/gcc/pic32mx/4.5.2/../../../../pic32mx/lib/./proc/32MX795F512L\default_isr_vectors.o (__vector_dispatch_52)
c:/program files/microchip/xc32/v1.31/bin/../lib/gcc/pic32mx/4.5.2/../../../../pic32mx/lib\libpic32.a(vector53.o)
                              c:/program files/microchip/xc32/v1.31/bin/../lib/gcc/pic32mx/4.5.2/../../../../pic32mx/lib/./proc/32MX795F512L\default_isr_vectors.o (__vector_dispatch_53)
c:/program files/microchip/xc32/v1.31/bin/../lib/gcc/pic32mx/4.5.2/../../../../pic32mx/lib\libpic32.a(vector54.o)
                              c:/program files/microchip/xc32/v1.31/bin/../lib/gcc/pic32mx/4.5.2/../../../../pic32mx/lib/./proc/32MX795F512L\default_isr_vectors.o (__vector_dispatch_54)
c:/program files/microchip/xc32/v1.31/bin/../lib/gcc/pic32mx/4.5.2/../../../../pic32mx/lib\libpic32.a(vector55.o)
                              c:/program files/microchip/xc32/v1.31/bin/../lib/gcc/pic32mx/4.5.2/../../../../pic32mx/lib/./proc/32MX795F512L\default_isr_vectors.o (__vector_dispatch_55)
c:/program files/microchip/xc32/v1.31/bin/../lib/gcc/pic32mx/4.5.2/../../../../pic32mx/lib\libpic32.a(vector56.o)
                              c:/program files/microchip/xc32/v1.31/bin/../lib/gcc/pic32mx/4.5.2/../../../../pic32mx/lib/./proc/32MX795F512L\default_isr_vectors.o (__vector_dispatch_56)
c:/program files/microchip/xc32/v1.31/bin/../lib/gcc/pic32mx/4.5.2/../../../../pic32mx/lib\libpic32.a(vector57.o)
                              c:/program files/microchip/xc32/v1.31/bin/../lib/gcc/pic32mx/4.5.2/../../../../pic32mx/lib/./proc/32MX795F512L\default_isr_vectors.o (__vector_dispatch_57)
c:/program files/microchip/xc32/v1.31/bin/../lib/gcc/pic32mx/4.5.2/../../../../pic32mx/lib\libpic32.a(vector58.o)
                              c:/program files/microchip/xc32/v1.31/bin/../lib/gcc/pic32mx/4.5.2/../../../../pic32mx/lib/./proc/32MX795F512L\default_isr_vectors.o (__vector_dispatch_58)
c:/program files/microchip/xc32/v1.31/bin/../lib/gcc/pic32mx/4.5.2/../../../../pic32mx/lib\libpic32.a(vector59.o)
                              c:/program files/microchip/xc32/v1.31/bin/../lib/gcc/pic32mx/4.5.2/../../../../pic32mx/lib/./proc/32MX795F512L\default_isr_vectors.o (__vector_dispatch_59)
c:/program files/microchip/xc32/v1.31/bin/../lib/gcc/pic32mx/4.5.2/../../../../pic32mx/lib\libpic32.a(vector60.o)
                              c:/program files/microchip/xc32/v1.31/bin/../lib/gcc/pic32mx/4.5.2/../../../../pic32mx/lib/./proc/32MX795F512L\default_isr_vectors.o (__vector_dispatch_60)
c:/program files/microchip/xc32/v1.31/bin/../lib/gcc/pic32mx/4.5.2/../../../../pic32mx/lib\libpic32.a(vector61.o)
                              c:/program files/microchip/xc32/v1.31/bin/../lib/gcc/pic32mx/4.5.2/../../../../pic32mx/lib/./proc/32MX795F512L\default_isr_vectors.o (__vector_dispatch_61)
c:/program files/microchip/xc32/v1.31/bin/../lib/gcc/pic32mx/4.5.2/../../../../pic32mx/lib\libpic32.a(vector62.o)
                              c:/program files/microchip/xc32/v1.31/bin/../lib/gcc/pic32mx/4.5.2/../../../../pic32mx/lib/./proc/32MX795F512L\default_isr_vectors.o (__vector_dispatch_62)
c:/program files/microchip/xc32/v1.31/bin/../lib/gcc/pic32mx/4.5.2/../../../../pic32mx/lib\libpic32.a(vector63.o)
                              c:/program files/microchip/xc32/v1.31/bin/../lib/gcc/pic32mx/4.5.2/../../../../pic32mx/lib/./proc/32MX795F512L\default_isr_vectors.o (__vector_dispatch_63)
c:/program files/microchip/xc32/v1.31/bin/../lib/gcc/pic32mx/4.5.2/../../../../pic32mx/lib\libpic32.a(defaultinterrupt.o)
                              c:/program files/microchip/xc32/v1.31/bin/../lib/gcc/pic32mx/4.5.2/../../../../pic32mx/lib\libpic32.a(vector0.o) (_DefaultInterrupt)
c:/program files/microchip/xc32/v1.31/bin/../lib/gcc/pic32mx/4.5.2/../../../../pic32mx/lib\libc.a(atol.o)
                              build/XC32-PIC32_ETH_SK_ETH795/production/_ext/1840844407/HTTP2.o (atol)
c:/program files/microchip/xc32/v1.31/bin/../lib/gcc/pic32mx/4.5.2/../../../../pic32mx/lib\libc.a(calloc.o)
                              build/XC32-PIC32_ETH_SK_ETH795/production/_ext/1840844407/ETHPIC32IntMac.o (calloc)
c:/program files/microchip/xc32/v1.31/bin/../lib/gcc/pic32mx/4.5.2/../../../../pic32mx/lib\libc.a(ctype.o)
                              c:/program files/microchip/xc32/v1.31/bin/../lib/gcc/pic32mx/4.5.2/../../../../pic32mx/lib\libc.a(atol.o) (_ctype)
c:/program files/microchip/xc32/v1.31/bin/../lib/gcc/pic32mx/4.5.2/../../../../pic32mx/lib\libc.a(malloc.o)
                              c:/program files/microchip/xc32/v1.31/bin/../lib/gcc/pic32mx/4.5.2/../../../../pic32mx/lib\libc.a(calloc.o) (malloc)
c:/program files/microchip/xc32/v1.31/bin/../lib/gcc/pic32mx/4.5.2/../../../../pic32mx/lib\libc.a(strncpy.o)
                              build/XC32-PIC32_ETH_SK_ETH795/production/_ext/1840844407/Helpers.o (strncpy)
c:/program files/microchip/xc32/v1.31/bin/../lib/gcc/pic32mx/4.5.2/../../../../pic32mx/lib\libpic32.a(sbrk.o)
                              c:/program files/microchip/xc32/v1.31/bin/../lib/gcc/pic32mx/4.5.2/../../../../pic32mx/lib\libc.a(malloc.o) (sbrk)
c:/program files/microchip/xc32/v1.31/bin/../lib/gcc/pic32mx/4.5.2/../../../../pic32mx/lib\libpic32.a(errno.o)
                              c:/program files/microchip/xc32/v1.31/bin/../lib/gcc/pic32mx/4.5.2/../../../../pic32mx/lib\libpic32.a(sbrk.o) (errno)

Allocating common symbols
Common symbol       size              file

AN0String           0x8               build/XC32-PIC32_ETH_SK_ETH795/production/_ext/1360937237/Main.o
curHTTPID           0x1               build/XC32-PIC32_ETH_SK_ETH795/production/_ext/1840844407/HTTP2.o
UDPRxCount          0x2               build/XC32-PIC32_ETH_SK_ETH795/production/_ext/1840844407/UDP.o
curHTTP             0x8c              build/XC32-PIC32_ETH_SK_ETH795/production/_ext/1840844407/HTTP2.o
_PhyAdd             0x4               build/XC32-PIC32_ETH_SK_ETH795/production/_ext/1840844407/ETHPIC32ExtPhy.o
httpStubs           0x10              build/XC32-PIC32_ETH_SK_ETH795/production/_ext/1840844407/HTTP2.o
DDNSClient          0x20              build/XC32-PIC32_ETH_SK_ETH795/production/_ext/1840844407/DynDNS.o
UDPTxCount          0x2               build/XC32-PIC32_ETH_SK_ETH795/production/_ext/1840844407/UDP.o
lastBlock           0x40              build/XC32-PIC32_ETH_SK_ETH795/production/_ext/1840844407/Hashes.o
activeUDPSocket     0x1               build/XC32-PIC32_ETH_SK_ETH795/production/_ext/1840844407/UDP.o
UDPSocketInfo       0xe0              build/XC32-PIC32_ETH_SK_ETH795/production/_ext/1840844407/UDP.o
remoteNode          0xa               build/XC32-PIC32_ETH_SK_ETH795/production/_ext/1840844407/StackTsk.o
AppConfig           0x33              build/XC32-PIC32_ETH_SK_ETH795/production/_ext/1360937237/Main.o
DhcpIpPool          0x78              build/XC32-PIC32_ETH_SK_ETH795/production/_ext/1840844407/DHCPs.o

Microchip PIC32 Memory-Usage Report

kseg0 Program-Memory Usage
section                    address  length [bytes]      (dec)  Description
-------                 ----------  -------------------------  -----------
.text                   0x9d000000         0x866c       34412  App's exec code 
.rodata                 0x9d00866c         0x7ad8       31448  Read-only const 
.text                   0x9d010144        0x127dc       75740  App's exec code 
.rodata                 0x9d022920          0x7d4        2004  Read-only const 
.text                   0x9d0230f4         0x2a58       10840  App's exec code 
.rodata                 0x9d025b4c          0x548        1352  Read-only const 
.text                   0x9d026094         0x13b0        5040  App's exec code 
.rodata                 0x9d027444          0x31c         796  Read-only const 
.dinit                  0x9d027760          0x300         768   
.text.malloc            0x9d027a60          0x288         648   
.text.EthRxBuffersAppen 0x9d027ce8          0x260         608   
.text._EthAckPacket     0x9d027f48          0x1dc         476   
.rodata                 0x9d028124          0x1d8         472  Read-only const 
.text                   0x9d0282fc          0x1c4         452  App's exec code 
.text.realloc           0x9d0284c0          0x194         404   
.text._sbrk_init        0x9d028654          0x194         404   
.text._EthRxAckBuffer   0x9d0287e8          0x184         388   
.text.EthRxGetPacket    0x9d02896c          0x180         384   
.text                   0x9d028aec          0x580        1408  App's exec code 
.text.EthTxSendPacket   0x9d02906c          0x14c         332   
.text._EthAppendBusyLis 0x9d0291b8          0x144         324   
.rodata                 0x9d0292fc          0x140         320  Read-only const 
.text.EthDescriptorsPoo 0x9d02943c          0x134         308   
.text.EthDescriptorsAdd 0x9d029570          0x12c         300   
.text                   0x9d02969c          0x120         288  App's exec code 
.rodata                 0x9d0297bc          0x104         260  Read-only const 
.text                   0x9d0298c0           0xf0         240  App's exec code 
.text.general_exception 0x9d0299b0           0xdc         220   
.text._sbrk             0x9d029a8c           0xc4         196   
.text.EthTxSendBuffer   0x9d029b50           0xc0         192   
.text.EthInit           0x9d029c10           0xb4         180   
.text.EthMACOpen        0x9d029cc4           0xb4         180   
.text._EthTxSchedBuffer 0x9d029d78           0xac         172   
.text                   0x9d029e24           0xa8         168  App's exec code 
.text.atol              0x9d029ecc           0xa8         168   
.text                   0x9d029f74           0x98         152  App's exec code 
.text._EthTxSchedList   0x9d02a00c           0x8c         140   
.text.EthMIIMConfig     0x9d02a098           0x80         128   
.text.SoftReset         0x9d02a118           0x78         120   
.text.EthTxGetBufferSta 0x9d02a190           0x70         112   
.text.EthRxFiltersPMSet 0x9d02a200           0x6c         108   
.text.calloc            0x9d02a26c           0x5c          92   
.text.strncpy           0x9d02a2c8           0x58          88   
.rodata                 0x9d02a320           0x54          84  Read-only const 
.text.INTEnable         0x9d02a374           0x50          80   
.text.sbrk              0x9d02a3c4           0x50          80   
.text.main_entry        0x9d02a414           0x4c          76   
.text.EthMACSetAddress  0x9d02a460           0x48          72   
.text.EthMACGetAddress  0x9d02a4a8           0x44          68   
.text                   0x9d02a4ec           0x44          68  App's exec code 
.text.EthMIIMReadStart  0x9d02a530           0x40          64   
.text.EthRxGetBuffer    0x9d02a570           0x3c          60   
.text.PORTSetPinsDigita 0x9d02a5ac           0x3c          60   
.text.PORTSetPinsDigita 0x9d02a5e8           0x3c          60   
.rodata                 0x9d02a624           0x38          56  Read-only const 
.text._EthFindPacket    0x9d02a65c           0x38          56   
.text.EthMIIMWriteStart 0x9d02a694           0x38          56   
.text.INTSetVectorPrior 0x9d02a6cc           0x38          56   
.text.INTSetVectorSubPr 0x9d02a704           0x38          56   
.text._bootstrap_except 0x9d02a73c           0x38          56   
.text.EthMIIMScanStart  0x9d02a774           0x34          52   
.text.INTEnableSystemMu 0x9d02a7a8           0x34          52   
.rodata                 0x9d02a7dc           0x30          48  Read-only const 
.text.EthTxAcknowledgeB 0x9d02a80c           0x30          48   
.text.EthTxAckBuffer    0x9d02a83c           0x30          48   
.text.EthRxSetBufferSiz 0x9d02a86c           0x30          48   
.vector_default         0x9d02a89c           0x30          48   
.text.free              0x9d02a8cc           0x30          48   
.text.INTGetVectorPrior 0x9d02a8fc           0x2c          44   
.text.INTGetVectorSubPr 0x9d02a928           0x2c          44   
.text._stub_sbd_memlayo 0x9d02a954           0x2c          44   
.text.EthMIIMReadResult 0x9d02a980           0x28          40   
.text.INTClearFlag      0x9d02a9a8           0x28          40   
.text.INTSetFlag        0x9d02a9d0           0x28          40   
.text.INTGetFlag        0x9d02a9f8           0x28          40   
.text.INTGetEnable      0x9d02aa20           0x28          40   
.text.EthMIIMScanResult 0x9d02aa48           0x20          32   
.text.EthRxAcknowledgeB 0x9d02aa68           0x1c          28   
.text.EthRxAckBuffer    0x9d02aa84           0x1c          28   
.text.INTRestoreInterru 0x9d02aaa0           0x1c          28   
.text.EthRxFiltersHTSet 0x9d02aabc           0x18          24   
.text.CheKseg0CacheOff  0x9d02aad4           0x18          24   
.text.CheKseg0CacheOn   0x9d02aaec           0x18          24   
.text                   0x9d02ab04           0x18          24  App's exec code 
.rodata                 0x9d02ab1c           0x28          40  Read-only const 
.text.EthMACSetMaxFrame 0x9d02ab44           0x14          20   
.text.EthRxFiltersPMClr 0x9d02ab58           0x14          20   
.text.EthRxFiltersSet   0x9d02ab6c           0x10          16   
.text.EthRxFiltersClr   0x9d02ab7c           0x10          16   
.text.EthRxFiltersWrite 0x9d02ab8c           0x10          16   
.rodata                 0x9d02ab9c           0x20          32  Read-only const 
.text.ReadCoreTimer     0x9d02abbc            0x8           8   
.text.INTDisableInterru 0x9d02abc4            0x8           8   
.text.INTEnableInterrup 0x9d02abcc            0x8           8   
.text._on_reset         0x9d02abd4            0x8           8   
.text._on_bootstrap     0x9d02abdc            0x8           8   
.text.getpagesize       0x9d02abe4            0x8           8   
      Total kseg0_program_mem used  :     0x2abec      175084  33.4% of 0x80000

kseg0 Boot-Memory Usage
section                    address  length [bytes]      (dec)  Description
-------                 ----------  -------------------------  -----------
         Total kseg0_boot_mem used  :           0           0  <1% of 0x970

Exception-Memory Usage 
section                    address  length [bytes]      (dec)  Description
-------                 ----------  -------------------------  -----------
.app_excpt              0x9fc01180           0x10          16  General-Exception 
.vector_0               0x9fc01200            0x8           8  Interrupt Vector 0 
.vector_1               0x9fc01220            0x8           8  Interrupt Vector 1 
.vector_2               0x9fc01240            0x8           8  Interrupt Vector 2 
.vector_3               0x9fc01260            0x8           8  Interrupt Vector 3 
.vector_4               0x9fc01280            0x8           8  Interrupt Vector 4 
.vector_5               0x9fc012a0            0x8           8  Interrupt Vector 5 
.vector_6               0x9fc012c0            0x8           8  Interrupt Vector 6 
.vector_7               0x9fc012e0            0x8           8  Interrupt Vector 7 
.vector_8               0x9fc01300            0x8           8  Interrupt Vector 8 
.vector_9               0x9fc01320            0x8           8  Interrupt Vector 9 
.vector_10              0x9fc01340            0x8           8  Interrupt Vector 10 
.vector_11              0x9fc01360            0x8           8  Interrupt Vector 11 
.vector_12              0x9fc01380            0x8           8  Interrupt Vector 12 
.vector_13              0x9fc013a0            0x8           8  Interrupt Vector 13 
.vector_14              0x9fc013c0            0x8           8  Interrupt Vector 14 
.vector_15              0x9fc013e0            0x8           8  Interrupt Vector 15 
.vector_16              0x9fc01400            0x8           8  Interrupt Vector 16 
.vector_17              0x9fc01420            0x8           8  Interrupt Vector 17 
.vector_18              0x9fc01440            0x8           8  Interrupt Vector 18 
.vector_19              0x9fc01460            0x8           8  Interrupt Vector 19 
.vector_20              0x9fc01480            0x8           8  Interrupt Vector 20 
.vector_21              0x9fc014a0            0x8           8  Interrupt Vector 21 
.vector_22              0x9fc014c0            0x8           8  Interrupt Vector 22 
.vector_23              0x9fc014e0            0x8           8  Interrupt Vector 23 
.vector_24              0x9fc01500            0x8           8  Interrupt Vector 24 
.vector_25              0x9fc01520            0x8           8  Interrupt Vector 25 
.vector_26              0x9fc01540            0x8           8  Interrupt Vector 26 
.vector_27              0x9fc01560            0x8           8  Interrupt Vector 27 
.vector_28              0x9fc01580            0x8           8  Interrupt Vector 28 
.vector_29              0x9fc015a0            0x8           8  Interrupt Vector 29 
.vector_30              0x9fc015c0            0x8           8  Interrupt Vector 30 
.vector_31              0x9fc015e0            0x8           8  Interrupt Vector 31 
.vector_32              0x9fc01600            0x8           8  Interrupt Vector 32 
.vector_33              0x9fc01620            0x8           8  Interrupt Vector 33 
.vector_34              0x9fc01640            0x8           8  Interrupt Vector 34 
.vector_35              0x9fc01660            0x8           8  Interrupt Vector 35 
.vector_36              0x9fc01680            0x8           8  Interrupt Vector 36 
.vector_37              0x9fc016a0            0x8           8  Interrupt Vector 37 
.vector_38              0x9fc016c0            0x8           8  Interrupt Vector 38 
.vector_39              0x9fc016e0            0x8           8  Interrupt Vector 39 
.vector_40              0x9fc01700            0x8           8  Interrupt Vector 40 
.vector_41              0x9fc01720            0x8           8  Interrupt Vector 41 
.vector_42              0x9fc01740            0x8           8  Interrupt Vector 42 
.vector_43              0x9fc01760            0x8           8  Interrupt Vector 43 
.vector_44              0x9fc01780            0x8           8  Interrupt Vector 44 
.vector_45              0x9fc017a0            0x8           8  Interrupt Vector 45 
.vector_46              0x9fc017c0            0x8           8  Interrupt Vector 46 
.vector_47              0x9fc017e0            0x8           8  Interrupt Vector 47 
.vector_48              0x9fc01800            0x8           8  Interrupt Vector 48 
.vector_49              0x9fc01820            0x8           8  Interrupt Vector 49 
.vector_50              0x9fc01840            0x8           8  Interrupt Vector 50 
.vector_51              0x9fc01860            0x8           8  Interrupt Vector 51 
.vector_52              0x9fc01880            0x8           8  Interrupt Vector 52 
.vector_53              0x9fc018a0            0x8           8  Interrupt Vector 53 
.vector_54              0x9fc018c0            0x8           8  Interrupt Vector 54 
.vector_55              0x9fc018e0            0x8           8  Interrupt Vector 55 
.vector_56              0x9fc01900            0x8           8  Interrupt Vector 56 
.vector_57              0x9fc01920            0x8           8  Interrupt Vector 57 
.vector_58              0x9fc01940            0x8           8  Interrupt Vector 58 
.vector_59              0x9fc01960            0x8           8  Interrupt Vector 59 
.vector_60              0x9fc01980            0x8           8  Interrupt Vector 60 
.vector_61              0x9fc019a0            0x8           8  Interrupt Vector 61 
.vector_62              0x9fc019c0            0x8           8  Interrupt Vector 62 
.vector_63              0x9fc019e0            0x8           8  Interrupt Vector 63 
          Total exception_mem used  :       0x210         528  12.9% of 0x1000

kseg1 Boot-Memory Usage
section                    address  length [bytes]      (dec)  Description
-------                 ----------  -------------------------  -----------
.reset                  0xbfc00000          0x1e8         488  Reset handler 
.bev_excpt              0xbfc00380           0x10          16  BEV-Exception 
         Total kseg1_boot_mem used  :       0x1f8         504  43.2% of 0x490
        --------------------------------------------------------------------------
         Total Program Memory used  :     0x2aff4      176116  33.1% of 0x81e00
        --------------------------------------------------------------------------


kseg1 Data-Memory Usage
section                    address  length [bytes]      (dec)  Description
-------                 ----------  -------------------------  -----------
.eh_frame               0xa0000000           0x30          48   
.sdata                  0xa0000030           0x24          36  Small init data 
.sbss                   0xa0000054          0x14c         332  Small uninit data 
.bss                    0xa00001a0          0x294         660  Uninitialized data 
.bss                    0xa0000434         0x8178       33144  Uninitialized data 
.data                   0xa00085ac           0x34          52  Initialized data 
.bss                    0xa00085e0           0x6c         108  Uninitialized data 
         Total kseg1_data_mem used  :      0x864c       34380  26.2% of 0x20000
        --------------------------------------------------------------------------
            Total Data Memory used  :      0x864c       34380  26.2% of 0x20000
        --------------------------------------------------------------------------


Dynamic Data-Memory Reservation
section                    address  length [bytes]      (dec)  Description
-------                 ----------  -------------------------  -----------
heap                    0xa0008658         0x3e80       16000  Reserved for heap 
stack                   0xa000c4f0        0x13b00       80640  Reserved for stack 

        --------------------------------------------------------------------------

Discarded input sections

 .reginfo       0x00000000       0x18 build/XC32-PIC32_ETH_SK_ETH795/production/_ext/1840844407/ARCFOUR.o
 .reginfo       0x00000000       0x18 build/XC32-PIC32_ETH_SK_ETH795/production/_ext/1840844407/ARP.o
 .reginfo       0x00000000       0x18 build/XC32-PIC32_ETH_SK_ETH795/production/_ext/1840844407/AutoIP.o
 .reginfo       0x00000000       0x18 build/XC32-PIC32_ETH_SK_ETH795/production/_ext/1840844407/BigInt.o
 .reginfo       0x00000000       0x18 build/XC32-PIC32_ETH_SK_ETH795/production/_ext/1840844407/BigInt_helper_PIC32.o
 .reginfo       0x00000000       0x18 build/XC32-PIC32_ETH_SK_ETH795/production/_ext/1840844407/DHCP.o
 .reginfo       0x00000000       0x18 build/XC32-PIC32_ETH_SK_ETH795/production/_ext/1840844407/DHCPs.o
 .reginfo       0x00000000       0x18 build/XC32-PIC32_ETH_SK_ETH795/production/_ext/1840844407/DNS.o
 .reginfo       0x00000000       0x18 build/XC32-PIC32_ETH_SK_ETH795/production/_ext/1840844407/DNSs.o
 .reginfo       0x00000000       0x18 build/XC32-PIC32_ETH_SK_ETH795/production/_ext/1840844407/Delay.o
 .reginfo       0x00000000       0x18 build/XC32-PIC32_ETH_SK_ETH795/production/_ext/1840844407/DynDNS.o
 .reginfo       0x00000000       0x18 build/XC32-PIC32_ETH_SK_ETH795/production/_ext/1840844407/ETHPIC32ExtPhy.o
 .reginfo       0x00000000       0x18 build/XC32-PIC32_ETH_SK_ETH795/production/_ext/1840844407/ETHPIC32ExtPhyDP83848.o
 .reginfo       0x00000000       0x18 build/XC32-PIC32_ETH_SK_ETH795/production/_ext/1840844407/ETHPIC32IntMac.o
 .reginfo       0x00000000       0x18 build/XC32-PIC32_ETH_SK_ETH795/production/_ext/1840844407/FileSystem.o
 .reginfo       0x00000000       0x18 build/XC32-PIC32_ETH_SK_ETH795/production/_ext/1840844407/HTTP2.o
 .reginfo       0x00000000       0x18 build/XC32-PIC32_ETH_SK_ETH795/production/_ext/1840844407/Hashes.o
 .reginfo       0x00000000       0x18 build/XC32-PIC32_ETH_SK_ETH795/production/_ext/1840844407/Helpers.o
 .reginfo       0x00000000       0x18 build/XC32-PIC32_ETH_SK_ETH795/production/_ext/1840844407/ICMP.o
 .reginfo       0x00000000       0x18 build/XC32-PIC32_ETH_SK_ETH795/production/_ext/1840844407/IP.o
 .reginfo       0x00000000       0x18 build/XC32-PIC32_ETH_SK_ETH795/production/_ext/1840844407/MPFS2.o
 .reginfo       0x00000000       0x18 build/XC32-PIC32_ETH_SK_ETH795/production/_ext/1472/MPFSImg2.o
 .reginfo       0x00000000       0x18 build/XC32-PIC32_ETH_SK_ETH795/production/_ext/1840844407/NBNS.o
 .reginfo       0x00000000       0x18 build/XC32-PIC32_ETH_SK_ETH795/production/_ext/1840844407/Random.o
 .reginfo       0x00000000       0x18 build/XC32-PIC32_ETH_SK_ETH795/production/_ext/1840844407/Reboot.o
 .reginfo       0x00000000       0x18 build/XC32-PIC32_ETH_SK_ETH795/production/_ext/1840844407/StackTsk.o
 .reginfo       0x00000000       0x18 build/XC32-PIC32_ETH_SK_ETH795/production/_ext/1840844407/TCP.o
 .reginfo       0x00000000       0x18 build/XC32-PIC32_ETH_SK_ETH795/production/_ext/1840844407/Telnet.o
 .reginfo       0x00000000       0x18 build/XC32-PIC32_ETH_SK_ETH795/production/_ext/1840844407/Tick.o
 .reginfo       0x00000000       0x18 build/XC32-PIC32_ETH_SK_ETH795/production/_ext/1840844407/UART.o
 .reginfo       0x00000000       0x18 build/XC32-PIC32_ETH_SK_ETH795/production/_ext/1840844407/UDP.o
 .reginfo       0x00000000       0x18 build/XC32-PIC32_ETH_SK_ETH795/production/_ext/1360937237/Main.o
 .reginfo       0x00000000       0x18 build/XC32-PIC32_ETH_SK_ETH795/production/_ext/1360937237/dmx.o
 .reginfo       0x00000000       0x18 build/XC32-PIC32_ETH_SK_ETH795/production/_ext/1360937237/gva_dmx.o
 .reginfo       0x00000000       0x18 build/XC32-PIC32_ETH_SK_ETH795/production/_ext/1360937237/Ping.o
 .reginfo       0x00000000       0x18 build/XC32-PIC32_ETH_SK_ETH795/production/_ext/1360937237/HTTPApp.o
 .reginfo       0x00000000       0x18 build/XC32-PIC32_ETH_SK_ETH795/production/_ext/1360937237/artnet.o
 .reginfo       0x00000000       0x18 c:/program files/microchip/xc32/v1.31/bin/../lib/gcc/pic32mx/4.5.2/../../../../pic32mx/lib/./proc/32MX795F512L\default_isr_vectors.o
 .discard       0x00000000      0x100 c:/program files/microchip/xc32/v1.31/bin/../lib/gcc/pic32mx/4.5.2/../../../../pic32mx/lib/./proc/32MX795F512L\default_isr_vectors.o
 .reginfo       0x00000000       0x18 c:/program files/microchip/xc32/v1.31/bin/../lib/gcc/pic32mx/4.5.2/../../../../pic32mx/lib/./proc/32MX795F512L\processor.o
 .reginfo       0x00000000       0x18 c:/program files/microchip/xc32/v1.31/bin/../lib/gcc/pic32mx/4.5.2/../../../../pic32mx/lib\libmchp_peripheral.a(read_core_timer_lib.o)
 .pdr           0x00000000       0x20 c:/program files/microchip/xc32/v1.31/bin/../lib/gcc/pic32mx/4.5.2/../../../../pic32mx/lib\libmchp_peripheral.a(read_core_timer_lib.o)
 .reginfo       0x00000000       0x18 c:/program files/microchip/xc32/v1.31/bin/../lib/gcc/pic32mx/4.5.2/../../../../pic32mx/lib\libmchp_peripheral_32MX795F512L.a(eth_ack_packet_lib.o)
 .pdr           0x00000000       0xc0 c:/program files/microchip/xc32/v1.31/bin/../lib/gcc/pic32mx/4.5.2/../../../../pic32mx/lib\libmchp_peripheral_32MX795F512L.a(eth_ack_packet_lib.o)
 .reginfo       0x00000000       0x18 c:/program files/microchip/xc32/v1.31/bin/../lib/gcc/pic32mx/4.5.2/../../../../pic32mx/lib\libmchp_peripheral_32MX795F512L.a(eth_descriptors_add_lib.o)
 .pdr           0x00000000       0x40 c:/program files/microchip/xc32/v1.31/bin/../lib/gcc/pic32mx/4.5.2/../../../../pic32mx/lib\libmchp_peripheral_32MX795F512L.a(eth_descriptors_add_lib.o)
 .reginfo       0x00000000       0x18 c:/program files/microchip/xc32/v1.31/bin/../lib/gcc/pic32mx/4.5.2/../../../../pic32mx/lib\libmchp_peripheral_32MX795F512L.a(eth_init_lib.o)
 .pdr           0x00000000       0x20 c:/program files/microchip/xc32/v1.31/bin/../lib/gcc/pic32mx/4.5.2/../../../../pic32mx/lib\libmchp_peripheral_32MX795F512L.a(eth_init_lib.o)
 .reginfo       0x00000000       0x18 c:/program files/microchip/xc32/v1.31/bin/../lib/gcc/pic32mx/4.5.2/../../../../pic32mx/lib\libmchp_peripheral_32MX795F512L.a(eth_mac_open_lib.o)
 .pdr           0x00000000       0x20 c:/program files/microchip/xc32/v1.31/bin/../lib/gcc/pic32mx/4.5.2/../../../../pic32mx/lib\libmchp_peripheral_32MX795F512L.a(eth_mac_open_lib.o)
 .reginfo       0x00000000       0x18 c:/program files/microchip/xc32/v1.31/bin/../lib/gcc/pic32mx/4.5.2/../../../../pic32mx/lib\libmchp_peripheral_32MX795F512L.a(eth_mac_set_address_max_lib.o)
 .pdr           0x00000000       0x60 c:/program files/microchip/xc32/v1.31/bin/../lib/gcc/pic32mx/4.5.2/../../../../pic32mx/lib\libmchp_peripheral_32MX795F512L.a(eth_mac_set_address_max_lib.o)
 .reginfo       0x00000000       0x18 c:/program files/microchip/xc32/v1.31/bin/../lib/gcc/pic32mx/4.5.2/../../../../pic32mx/lib\libmchp_peripheral_32MX795F512L.a(eth_rx_buffers_append_lib.o)
 .pdr           0x00000000       0x20 c:/program files/microchip/xc32/v1.31/bin/../lib/gcc/pic32mx/4.5.2/../../../../pic32mx/lib\libmchp_peripheral_32MX795F512L.a(eth_rx_buffers_append_lib.o)
 .reginfo       0x00000000       0x18 c:/program files/microchip/xc32/v1.31/bin/../lib/gcc/pic32mx/4.5.2/../../../../pic32mx/lib\libmchp_peripheral_32MX795F512L.a(eth_rx_filters_lib.o)
 .pdr           0x00000000       0xc0 c:/program files/microchip/xc32/v1.31/bin/../lib/gcc/pic32mx/4.5.2/../../../../pic32mx/lib\libmchp_peripheral_32MX795F512L.a(eth_rx_filters_lib.o)
 .reginfo       0x00000000       0x18 c:/program files/microchip/xc32/v1.31/bin/../lib/gcc/pic32mx/4.5.2/../../../../pic32mx/lib\libmchp_peripheral_32MX795F512L.a(eth_rx_get_packet_lib.o)
 .pdr           0x00000000       0x40 c:/program files/microchip/xc32/v1.31/bin/../lib/gcc/pic32mx/4.5.2/../../../../pic32mx/lib\libmchp_peripheral_32MX795F512L.a(eth_rx_get_packet_lib.o)
 .reginfo       0x00000000       0x18 c:/program files/microchip/xc32/v1.31/bin/../lib/gcc/pic32mx/4.5.2/../../../../pic32mx/lib\libmchp_peripheral_32MX795F512L.a(eth_rx_set_buffer_size_lib.o)
 .pdr           0x00000000       0x20 c:/program files/microchip/xc32/v1.31/bin/../lib/gcc/pic32mx/4.5.2/../../../../pic32mx/lib\libmchp_peripheral_32MX795F512L.a(eth_rx_set_buffer_size_lib.o)
 .reginfo       0x00000000       0x18 c:/program files/microchip/xc32/v1.31/bin/../lib/gcc/pic32mx/4.5.2/../../../../pic32mx/lib\libmchp_peripheral_32MX795F512L.a(eth_tx_packet_lib.o)
 .pdr           0x00000000       0xc0 c:/program files/microchip/xc32/v1.31/bin/../lib/gcc/pic32mx/4.5.2/../../../../pic32mx/lib\libmchp_peripheral_32MX795F512L.a(eth_tx_packet_lib.o)
 .reginfo       0x00000000       0x18 c:/program files/microchip/xc32/v1.31/bin/../lib/gcc/pic32mx/4.5.2/../../../../pic32mx/lib\libmchp_peripheral_32MX795F512L.a(_eth_append_busy_list_lib.o)
 .pdr           0x00000000       0x20 c:/program files/microchip/xc32/v1.31/bin/../lib/gcc/pic32mx/4.5.2/../../../../pic32mx/lib\libmchp_peripheral_32MX795F512L.a(_eth_append_busy_list_lib.o)
 .reginfo       0x00000000       0x18 c:/program files/microchip/xc32/v1.31/bin/../lib/gcc/pic32mx/4.5.2/../../../../pic32mx/lib\libmchp_peripheral_32MX795F512L.a(eth_miim_access.o)
 .pdr           0x00000000       0xc0 c:/program files/microchip/xc32/v1.31/bin/../lib/gcc/pic32mx/4.5.2/../../../../pic32mx/lib\libmchp_peripheral_32MX795F512L.a(eth_miim_access.o)
 .reginfo       0x00000000       0x18 c:/program files/microchip/xc32/v1.31/bin/../lib/gcc/pic32mx/4.5.2/../../../../pic32mx/lib\libmchp_peripheral_32MX795F512L.a(soft_reset_lib.o)
 .pdr           0x00000000       0x20 c:/program files/microchip/xc32/v1.31/bin/../lib/gcc/pic32mx/4.5.2/../../../../pic32mx/lib\libmchp_peripheral_32MX795F512L.a(soft_reset_lib.o)
 .reginfo       0x00000000       0x18 c:/program files/microchip/xc32/v1.31/bin/../lib/gcc/pic32mx/4.5.2/../../../../pic32mx/lib\libmchp_peripheral_32MX795F512L.a(pcache.o)
 .pdr           0x00000000       0x40 c:/program files/microchip/xc32/v1.31/bin/../lib/gcc/pic32mx/4.5.2/../../../../pic32mx/lib\libmchp_peripheral_32MX795F512L.a(pcache.o)
 .reginfo       0x00000000       0x18 c:/program files/microchip/xc32/v1.31/bin/../lib/gcc/pic32mx/4.5.2/../../../../pic32mx/lib\libmchp_peripheral_32MX795F512L.a(int_disable_interrupts_lib.o)
 .pdr           0x00000000       0x20 c:/program files/microchip/xc32/v1.31/bin/../lib/gcc/pic32mx/4.5.2/../../../../pic32mx/lib\libmchp_peripheral_32MX795F512L.a(int_disable_interrupts_lib.o)
 .reginfo       0x00000000       0x18 c:/program files/microchip/xc32/v1.31/bin/../lib/gcc/pic32mx/4.5.2/../../../../pic32mx/lib\libmchp_peripheral_32MX795F512L.a(int_restore_interrupts_lib.o)
 .pdr           0x00000000       0x20 c:/program files/microchip/xc32/v1.31/bin/../lib/gcc/pic32mx/4.5.2/../../../../pic32mx/lib\libmchp_peripheral_32MX795F512L.a(int_restore_interrupts_lib.o)
 .reginfo       0x00000000       0x18 c:/program files/microchip/xc32/v1.31/bin/../lib/gcc/pic32mx/4.5.2/../../../../pic32mx/lib\libmchp_peripheral_32MX795F512L.a(int_enable_mv_int_lib.o)
 .pdr           0x00000000       0x20 c:/program files/microchip/xc32/v1.31/bin/../lib/gcc/pic32mx/4.5.2/../../../../pic32mx/lib\libmchp_peripheral_32MX795F512L.a(int_enable_mv_int_lib.o)
 .reginfo       0x00000000       0x18 c:/program files/microchip/xc32/v1.31/bin/../lib/gcc/pic32mx/4.5.2/../../../../pic32mx/lib\libmchp_peripheral_32MX795F512L.a(int_tbl_lib.o)
 .pdr           0x00000000      0x120 c:/program files/microchip/xc32/v1.31/bin/../lib/gcc/pic32mx/4.5.2/../../../../pic32mx/lib\libmchp_peripheral_32MX795F512L.a(int_tbl_lib.o)
 .reginfo       0x00000000       0x18 c:/program files/microchip/xc32/v1.31/bin/../lib/gcc/pic32mx/4.5.2/../../../../pic32mx/lib\libmchp_peripheral_32MX795F512L.a(port_set_pins_digital_in_lib.o)
 .pdr           0x00000000       0x20 c:/program files/microchip/xc32/v1.31/bin/../lib/gcc/pic32mx/4.5.2/../../../../pic32mx/lib\libmchp_peripheral_32MX795F512L.a(port_set_pins_digital_in_lib.o)
 .reginfo       0x00000000       0x18 c:/program files/microchip/xc32/v1.31/bin/../lib/gcc/pic32mx/4.5.2/../../../../pic32mx/lib\libmchp_peripheral_32MX795F512L.a(port_set_pins_digital_out_lib.o)
 .pdr           0x00000000       0x20 c:/program files/microchip/xc32/v1.31/bin/../lib/gcc/pic32mx/4.5.2/../../../../pic32mx/lib\libmchp_peripheral_32MX795F512L.a(port_set_pins_digital_out_lib.o)
 .reginfo       0x00000000       0x18 c:/program files/microchip/xc32/v1.31/bin/../lib/gcc/pic32mx/4.5.2/../../../../pic32mx/lib\libmchp_peripheral_32MX795F512L.a(_ports_tbl_libp.o)
 .pdr           0x00000000        0x0 c:/program files/microchip/xc32/v1.31/bin/../lib/gcc/pic32mx/4.5.2/../../../../pic32mx/lib\libmchp_peripheral_32MX795F512L.a(_ports_tbl_libp.o)
 .reginfo       0x00000000       0x18 c:/program files/microchip/xc32/v1.31/bin/../lib/gcc/pic32mx/4.5.2/../../../../pic32mx/lib\libmchp_peripheral_32MX795F512L.a(int_enable_interrupts_lib.o)
 .pdr           0x00000000       0x20 c:/program files/microchip/xc32/v1.31/bin/../lib/gcc/pic32mx/4.5.2/../../../../pic32mx/lib\libmchp_peripheral_32MX795F512L.a(int_enable_interrupts_lib.o)
 .reginfo       0x00000000       0x18 c:/program files/microchip/xc32/v1.31/bin/../lib/gcc/pic32mx/4.5.2\libgcc.a(_udivdi3.o)
 .reginfo       0x00000000       0x18 c:/program files/microchip/xc32/v1.31/bin/../lib/gcc/pic32mx/4.5.2\libgcc.a(_umoddi3.o)
 .reginfo       0x00000000       0x18 c:/program files/microchip/xc32/v1.31/bin/../lib/gcc/pic32mx/4.5.2/../../../../pic32mx/lib\libpic32.a(memcmp.o)
 .reginfo       0x00000000       0x18 c:/program files/microchip/xc32/v1.31/bin/../lib/gcc/pic32mx/4.5.2/../../../../pic32mx/lib\libpic32.a(memcpy.o)
 .reginfo       0x00000000       0x18 c:/program files/microchip/xc32/v1.31/bin/../lib/gcc/pic32mx/4.5.2/../../../../pic32mx/lib\libpic32.a(memset.o)
 .reginfo       0x00000000       0x18 c:/program files/microchip/xc32/v1.31/bin/../lib/gcc/pic32mx/4.5.2/../../../../pic32mx/lib\libpic32.a(strcmp.o)
 .reginfo       0x00000000       0x18 c:/program files/microchip/xc32/v1.31/bin/../lib/gcc/pic32mx/4.5.2/../../../../pic32mx/lib\libpic32.a(strlen.o)
 .reginfo       0x00000000       0x18 c:/program files/microchip/xc32/v1.31/bin/../lib/gcc/pic32mx/4.5.2/../../../../pic32mx/lib\libpic32.a(default-bootstrap-exception-handler.o)
 .reginfo       0x00000000       0x18 c:/program files/microchip/xc32/v1.31/bin/../lib/gcc/pic32mx/4.5.2/../../../../pic32mx/lib\libpic32.a(default-on-reset.o)
 .reginfo       0x00000000       0x18 c:/program files/microchip/xc32/v1.31/bin/../lib/gcc/pic32mx/4.5.2/../../../../pic32mx/lib\libpic32.a(default-on-bootstrap.o)
 .reginfo       0x00000000       0x18 c:/program files/microchip/xc32/v1.31/bin/../lib/gcc/pic32mx/4.5.2/../../../../pic32mx/lib\libpic32.a(default-nmi-handler.o)
 .reginfo       0x00000000       0x18 c:/program files/microchip/xc32/v1.31/bin/../lib/gcc/pic32mx/4.5.2/../../../../pic32mx/lib\libpic32.a(pic32_software_reset.o)
 .reginfo       0x00000000       0x18 c:/program files/microchip/xc32/v1.31/bin/../lib/gcc/pic32mx/4.5.2/../../../../pic32mx/lib\libpic32.a(general-exception.o)
 .reginfo       0x00000000       0x18 c:/program files/microchip/xc32/v1.31/bin/../lib/gcc/pic32mx/4.5.2/../../../../pic32mx/lib\libpic32.a(vector0.o)
 .reginfo       0x00000000       0x18 c:/program files/microchip/xc32/v1.31/bin/../lib/gcc/pic32mx/4.5.2/../../../../pic32mx/lib\libpic32.a(vector1.o)
 .reginfo       0x00000000       0x18 c:/program files/microchip/xc32/v1.31/bin/../lib/gcc/pic32mx/4.5.2/../../../../pic32mx/lib\libpic32.a(vector2.o)
 .reginfo       0x00000000       0x18 c:/program files/microchip/xc32/v1.31/bin/../lib/gcc/pic32mx/4.5.2/../../../../pic32mx/lib\libpic32.a(vector3.o)
 .reginfo       0x00000000       0x18 c:/program files/microchip/xc32/v1.31/bin/../lib/gcc/pic32mx/4.5.2/../../../../pic32mx/lib\libpic32.a(vector5.o)
 .reginfo       0x00000000       0x18 c:/program files/microchip/xc32/v1.31/bin/../lib/gcc/pic32mx/4.5.2/../../../../pic32mx/lib\libpic32.a(vector6.o)
 .reginfo       0x00000000       0x18 c:/program files/microchip/xc32/v1.31/bin/../lib/gcc/pic32mx/4.5.2/../../../../pic32mx/lib\libpic32.a(vector7.o)
 .reginfo       0x00000000       0x18 c:/program files/microchip/xc32/v1.31/bin/../lib/gcc/pic32mx/4.5.2/../../../../pic32mx/lib\libpic32.a(vector8.o)
 .reginfo       0x00000000       0x18 c:/program files/microchip/xc32/v1.31/bin/../lib/gcc/pic32mx/4.5.2/../../../../pic32mx/lib\libpic32.a(vector9.o)
 .reginfo       0x00000000       0x18 c:/program files/microchip/xc32/v1.31/bin/../lib/gcc/pic32mx/4.5.2/../../../../pic32mx/lib\libpic32.a(vector10.o)
 .reginfo       0x00000000       0x18 c:/program files/microchip/xc32/v1.31/bin/../lib/gcc/pic32mx/4.5.2/../../../../pic32mx/lib\libpic32.a(vector11.o)
 .reginfo       0x00000000       0x18 c:/program files/microchip/xc32/v1.31/bin/../lib/gcc/pic32mx/4.5.2/../../../../pic32mx/lib\libpic32.a(vector12.o)
 .reginfo       0x00000000       0x18 c:/program files/microchip/xc32/v1.31/bin/../lib/gcc/pic32mx/4.5.2/../../../../pic32mx/lib\libpic32.a(vector13.o)
 .reginfo       0x00000000       0x18 c:/program files/microchip/xc32/v1.31/bin/../lib/gcc/pic32mx/4.5.2/../../../../pic32mx/lib\libpic32.a(vector14.o)
 .reginfo       0x00000000       0x18 c:/program files/microchip/xc32/v1.31/bin/../lib/gcc/pic32mx/4.5.2/../../../../pic32mx/lib\libpic32.a(vector15.o)
 .reginfo       0x00000000       0x18 c:/program files/microchip/xc32/v1.31/bin/../lib/gcc/pic32mx/4.5.2/../../../../pic32mx/lib\libpic32.a(vector16.o)
 .reginfo       0x00000000       0x18 c:/program files/microchip/xc32/v1.31/bin/../lib/gcc/pic32mx/4.5.2/../../../../pic32mx/lib\libpic32.a(vector17.o)
 .reginfo       0x00000000       0x18 c:/program files/microchip/xc32/v1.31/bin/../lib/gcc/pic32mx/4.5.2/../../../../pic32mx/lib\libpic32.a(vector18.o)
 .reginfo       0x00000000       0x18 c:/program files/microchip/xc32/v1.31/bin/../lib/gcc/pic32mx/4.5.2/../../../../pic32mx/lib\libpic32.a(vector19.o)
 .reginfo       0x00000000       0x18 c:/program files/microchip/xc32/v1.31/bin/../lib/gcc/pic32mx/4.5.2/../../../../pic32mx/lib\libpic32.a(vector20.o)
 .reginfo       0x00000000       0x18 c:/program files/microchip/xc32/v1.31/bin/../lib/gcc/pic32mx/4.5.2/../../../../pic32mx/lib\libpic32.a(vector21.o)
 .reginfo       0x00000000       0x18 c:/program files/microchip/xc32/v1.31/bin/../lib/gcc/pic32mx/4.5.2/../../../../pic32mx/lib\libpic32.a(vector22.o)
 .reginfo       0x00000000       0x18 c:/program files/microchip/xc32/v1.31/bin/../lib/gcc/pic32mx/4.5.2/../../../../pic32mx/lib\libpic32.a(vector23.o)
 .reginfo       0x00000000       0x18 c:/program files/microchip/xc32/v1.31/bin/../lib/gcc/pic32mx/4.5.2/../../../../pic32mx/lib\libpic32.a(vector24.o)
 .reginfo       0x00000000       0x18 c:/program files/microchip/xc32/v1.31/bin/../lib/gcc/pic32mx/4.5.2/../../../../pic32mx/lib\libpic32.a(vector25.o)
 .reginfo       0x00000000       0x18 c:/program files/microchip/xc32/v1.31/bin/../lib/gcc/pic32mx/4.5.2/../../../../pic32mx/lib\libpic32.a(vector26.o)
 .reginfo       0x00000000       0x18 c:/program files/microchip/xc32/v1.31/bin/../lib/gcc/pic32mx/4.5.2/../../../../pic32mx/lib\libpic32.a(vector27.o)
 .reginfo       0x00000000       0x18 c:/program files/microchip/xc32/v1.31/bin/../lib/gcc/pic32mx/4.5.2/../../../../pic32mx/lib\libpic32.a(vector28.o)
 .reginfo       0x00000000       0x18 c:/program files/microchip/xc32/v1.31/bin/../lib/gcc/pic32mx/4.5.2/../../../../pic32mx/lib\libpic32.a(vector29.o)
 .reginfo       0x00000000       0x18 c:/program files/microchip/xc32/v1.31/bin/../lib/gcc/pic32mx/4.5.2/../../../../pic32mx/lib\libpic32.a(vector30.o)
 .reginfo       0x00000000       0x18 c:/program files/microchip/xc32/v1.31/bin/../lib/gcc/pic32mx/4.5.2/../../../../pic32mx/lib\libpic32.a(vector31.o)
 .reginfo       0x00000000       0x18 c:/program files/microchip/xc32/v1.31/bin/../lib/gcc/pic32mx/4.5.2/../../../../pic32mx/lib\libpic32.a(vector32.o)
 .reginfo       0x00000000       0x18 c:/program files/microchip/xc32/v1.31/bin/../lib/gcc/pic32mx/4.5.2/../../../../pic32mx/lib\libpic32.a(vector33.o)
 .reginfo       0x00000000       0x18 c:/program files/microchip/xc32/v1.31/bin/../lib/gcc/pic32mx/4.5.2/../../../../pic32mx/lib\libpic32.a(vector34.o)
 .reginfo       0x00000000       0x18 c:/program files/microchip/xc32/v1.31/bin/../lib/gcc/pic32mx/4.5.2/../../../../pic32mx/lib\libpic32.a(vector35.o)
 .reginfo       0x00000000       0x18 c:/program files/microchip/xc32/v1.31/bin/../lib/gcc/pic32mx/4.5.2/../../../../pic32mx/lib\libpic32.a(vector36.o)
 .reginfo       0x00000000       0x18 c:/program files/microchip/xc32/v1.31/bin/../lib/gcc/pic32mx/4.5.2/../../../../pic32mx/lib\libpic32.a(vector37.o)
 .reginfo       0x00000000       0x18 c:/program files/microchip/xc32/v1.31/bin/../lib/gcc/pic32mx/4.5.2/../../../../pic32mx/lib\libpic32.a(vector38.o)
 .reginfo       0x00000000       0x18 c:/program files/microchip/xc32/v1.31/bin/../lib/gcc/pic32mx/4.5.2/../../../../pic32mx/lib\libpic32.a(vector39.o)
 .reginfo       0x00000000       0x18 c:/program files/microchip/xc32/v1.31/bin/../lib/gcc/pic32mx/4.5.2/../../../../pic32mx/lib\libpic32.a(vector40.o)
 .reginfo       0x00000000       0x18 c:/program files/microchip/xc32/v1.31/bin/../lib/gcc/pic32mx/4.5.2/../../../../pic32mx/lib\libpic32.a(vector41.o)
 .reginfo       0x00000000       0x18 c:/program files/microchip/xc32/v1.31/bin/../lib/gcc/pic32mx/4.5.2/../../../../pic32mx/lib\libpic32.a(vector42.o)
 .reginfo       0x00000000       0x18 c:/program files/microchip/xc32/v1.31/bin/../lib/gcc/pic32mx/4.5.2/../../../../pic32mx/lib\libpic32.a(vector43.o)
 .reginfo       0x00000000       0x18 c:/program files/microchip/xc32/v1.31/bin/../lib/gcc/pic32mx/4.5.2/../../../../pic32mx/lib\libpic32.a(vector44.o)
 .reginfo       0x00000000       0x18 c:/program files/microchip/xc32/v1.31/bin/../lib/gcc/pic32mx/4.5.2/../../../../pic32mx/lib\libpic32.a(vector45.o)
 .reginfo       0x00000000       0x18 c:/program files/microchip/xc32/v1.31/bin/../lib/gcc/pic32mx/4.5.2/../../../../pic32mx/lib\libpic32.a(vector46.o)
 .reginfo       0x00000000       0x18 c:/program files/microchip/xc32/v1.31/bin/../lib/gcc/pic32mx/4.5.2/../../../../pic32mx/lib\libpic32.a(vector47.o)
 .reginfo       0x00000000       0x18 c:/program files/microchip/xc32/v1.31/bin/../lib/gcc/pic32mx/4.5.2/../../../../pic32mx/lib\libpic32.a(vector48.o)
 .reginfo       0x00000000       0x18 c:/program files/microchip/xc32/v1.31/bin/../lib/gcc/pic32mx/4.5.2/../../../../pic32mx/lib\libpic32.a(vector49.o)
 .reginfo       0x00000000       0x18 c:/program files/microchip/xc32/v1.31/bin/../lib/gcc/pic32mx/4.5.2/../../../../pic32mx/lib\libpic32.a(vector50.o)
 .reginfo       0x00000000       0x18 c:/program files/microchip/xc32/v1.31/bin/../lib/gcc/pic32mx/4.5.2/../../../../pic32mx/lib\libpic32.a(vector51.o)
 .reginfo       0x00000000       0x18 c:/program files/microchip/xc32/v1.31/bin/../lib/gcc/pic32mx/4.5.2/../../../../pic32mx/lib\libpic32.a(vector52.o)
 .reginfo       0x00000000       0x18 c:/program files/microchip/xc32/v1.31/bin/../lib/gcc/pic32mx/4.5.2/../../../../pic32mx/lib\libpic32.a(vector53.o)
 .reginfo       0x00000000       0x18 c:/program files/microchip/xc32/v1.31/bin/../lib/gcc/pic32mx/4.5.2/../../../../pic32mx/lib\libpic32.a(vector54.o)
 .reginfo       0x00000000       0x18 c:/program files/microchip/xc32/v1.31/bin/../lib/gcc/pic32mx/4.5.2/../../../../pic32mx/lib\libpic32.a(vector55.o)
 .reginfo       0x00000000       0x18 c:/program files/microchip/xc32/v1.31/bin/../lib/gcc/pic32mx/4.5.2/../../../../pic32mx/lib\libpic32.a(vector56.o)
 .reginfo       0x00000000       0x18 c:/program files/microchip/xc32/v1.31/bin/../lib/gcc/pic32mx/4.5.2/../../../../pic32mx/lib\libpic32.a(vector57.o)
 .reginfo       0x00000000       0x18 c:/program files/microchip/xc32/v1.31/bin/../lib/gcc/pic32mx/4.5.2/../../../../pic32mx/lib\libpic32.a(vector58.o)
 .reginfo       0x00000000       0x18 c:/program files/microchip/xc32/v1.31/bin/../lib/gcc/pic32mx/4.5.2/../../../../pic32mx/lib\libpic32.a(vector59.o)
 .reginfo       0x00000000       0x18 c:/program files/microchip/xc32/v1.31/bin/../lib/gcc/pic32mx/4.5.2/../../../../pic32mx/lib\libpic32.a(vector60.o)
 .reginfo       0x00000000       0x18 c:/program files/microchip/xc32/v1.31/bin/../lib/gcc/pic32mx/4.5.2/../../../../pic32mx/lib\libpic32.a(vector61.o)
 .reginfo       0x00000000       0x18 c:/program files/microchip/xc32/v1.31/bin/../lib/gcc/pic32mx/4.5.2/../../../../pic32mx/lib\libpic32.a(vector62.o)
 .reginfo       0x00000000       0x18 c:/program files/microchip/xc32/v1.31/bin/../lib/gcc/pic32mx/4.5.2/../../../../pic32mx/lib\libpic32.a(vector63.o)
 .reginfo       0x00000000       0x18 c:/program files/microchip/xc32/v1.31/bin/../lib/gcc/pic32mx/4.5.2/../../../../pic32mx/lib\libpic32.a(defaultinterrupt.o)
 .reginfo       0x00000000       0x18 c:/program files/microchip/xc32/v1.31/bin/../lib/gcc/pic32mx/4.5.2/../../../../pic32mx/lib\libc.a(atol.o)
 .reginfo       0x00000000       0x18 c:/program files/microchip/xc32/v1.31/bin/../lib/gcc/pic32mx/4.5.2/../../../../pic32mx/lib\libc.a(calloc.o)
 .reginfo       0x00000000       0x18 c:/program files/microchip/xc32/v1.31/bin/../lib/gcc/pic32mx/4.5.2/../../../../pic32mx/lib\libc.a(ctype.o)
 .reginfo       0x00000000       0x18 c:/program files/microchip/xc32/v1.31/bin/../lib/gcc/pic32mx/4.5.2/../../../../pic32mx/lib\libc.a(malloc.o)
 .reginfo       0x00000000       0x18 c:/program files/microchip/xc32/v1.31/bin/../lib/gcc/pic32mx/4.5.2/../../../../pic32mx/lib\libc.a(strncpy.o)
 .reginfo       0x00000000       0x18 c:/program files/microchip/xc32/v1.31/bin/../lib/gcc/pic32mx/4.5.2/../../../../pic32mx/lib\libpic32.a(sbrk.o)
 .reginfo       0x00000000       0x18 c:/program files/microchip/xc32/v1.31/bin/../lib/gcc/pic32mx/4.5.2/../../../../pic32mx/lib\libpic32.a(errno.o)
 .reginfo       0x00000000       0x18 c:/program files/microchip/xc32/v1.31/bin/../lib/gcc/pic32mx/4.5.2/../../../../pic32mx/lib\debug-exception-return.o

Memory Configuration

Name             Origin             Length             Attributes
kseg0_program_mem 0x9d000000         0x00080000         xr
kseg0_boot_mem   0x9fc00490         0x00000970
exception_mem    0x9fc01000         0x00001000
kseg1_boot_mem   0xbfc00000         0x00000490
debug_exec_mem   0xbfc02000         0x00000ff0
config3          0xbfc02ff0         0x00000004
config2          0xbfc02ff4         0x00000004
config1          0xbfc02ff8         0x00000004
config0          0xbfc02ffc         0x00000004
kseg1_data_mem   0xa0000000         0x00020000         w !x
sfrs             0xbf800000         0x00100000
configsfrs       0xbfc02ff0         0x00000010
*default*        0x00000000         0xffffffff

Linker script and memory map

LOAD c:/program files/microchip/xc32/v1.31/bin/../lib/gcc/pic32mx/4.5.2/../../../../pic32mx/lib/./proc/32MX795F512L/crt0_mips32r2.o
LOAD build/XC32-PIC32_ETH_SK_ETH795/production/_ext/1840844407/ARCFOUR.o
LOAD build/XC32-PIC32_ETH_SK_ETH795/production/_ext/1840844407/ARP.o
LOAD build/XC32-PIC32_ETH_SK_ETH795/production/_ext/1840844407/AutoIP.o
LOAD build/XC32-PIC32_ETH_SK_ETH795/production/_ext/1840844407/BigInt.o
LOAD build/XC32-PIC32_ETH_SK_ETH795/production/_ext/1840844407/BigInt_helper_PIC32.o
LOAD build/XC32-PIC32_ETH_SK_ETH795/production/_ext/1840844407/DHCP.o
LOAD build/XC32-PIC32_ETH_SK_ETH795/production/_ext/1840844407/DHCPs.o
LOAD build/XC32-PIC32_ETH_SK_ETH795/production/_ext/1840844407/DNS.o
LOAD build/XC32-PIC32_ETH_SK_ETH795/production/_ext/1840844407/DNSs.o
LOAD build/XC32-PIC32_ETH_SK_ETH795/production/_ext/1840844407/Delay.o
LOAD build/XC32-PIC32_ETH_SK_ETH795/production/_ext/1840844407/DynDNS.o
LOAD build/XC32-PIC32_ETH_SK_ETH795/production/_ext/1840844407/ETHPIC32ExtPhy.o
LOAD build/XC32-PIC32_ETH_SK_ETH795/production/_ext/1840844407/ETHPIC32ExtPhyDP83848.o
LOAD build/XC32-PIC32_ETH_SK_ETH795/production/_ext/1840844407/ETHPIC32IntMac.o
LOAD build/XC32-PIC32_ETH_SK_ETH795/production/_ext/1840844407/FileSystem.o
LOAD build/XC32-PIC32_ETH_SK_ETH795/production/_ext/1840844407/HTTP2.o
LOAD build/XC32-PIC32_ETH_SK_ETH795/production/_ext/1840844407/Hashes.o
LOAD build/XC32-PIC32_ETH_SK_ETH795/production/_ext/1840844407/Helpers.o
LOAD build/XC32-PIC32_ETH_SK_ETH795/production/_ext/1840844407/ICMP.o
LOAD build/XC32-PIC32_ETH_SK_ETH795/production/_ext/1840844407/IP.o
LOAD build/XC32-PIC32_ETH_SK_ETH795/production/_ext/1840844407/MPFS2.o
LOAD build/XC32-PIC32_ETH_SK_ETH795/production/_ext/1472/MPFSImg2.o
LOAD build/XC32-PIC32_ETH_SK_ETH795/production/_ext/1840844407/NBNS.o
LOAD build/XC32-PIC32_ETH_SK_ETH795/production/_ext/1840844407/Random.o
LOAD build/XC32-PIC32_ETH_SK_ETH795/production/_ext/1840844407/Reboot.o
LOAD build/XC32-PIC32_ETH_SK_ETH795/production/_ext/1840844407/StackTsk.o
LOAD build/XC32-PIC32_ETH_SK_ETH795/production/_ext/1840844407/TCP.o
LOAD build/XC32-PIC32_ETH_SK_ETH795/production/_ext/1840844407/Telnet.o
LOAD build/XC32-PIC32_ETH_SK_ETH795/production/_ext/1840844407/Tick.o
LOAD build/XC32-PIC32_ETH_SK_ETH795/production/_ext/1840844407/UART.o
LOAD build/XC32-PIC32_ETH_SK_ETH795/production/_ext/1840844407/UDP.o
LOAD build/XC32-PIC32_ETH_SK_ETH795/production/_ext/1360937237/Main.o
LOAD build/XC32-PIC32_ETH_SK_ETH795/production/_ext/1360937237/dmx.o
LOAD build/XC32-PIC32_ETH_SK_ETH795/production/_ext/1360937237/gva_dmx.o
LOAD build/XC32-PIC32_ETH_SK_ETH795/production/_ext/1360937237/Ping.o
LOAD build/XC32-PIC32_ETH_SK_ETH795/production/_ext/1360937237/HTTPApp.o
LOAD build/XC32-PIC32_ETH_SK_ETH795/production/_ext/1360937237/artnet.o
                0x00000001                __MPLAB_BUILD = 0x1
                0x00003e80                _min_heap_size = 0x3e80
                0x00000800                _min_stack_size = 0x800
LOAD c:/program files/microchip/xc32/v1.31/bin/../lib/gcc/pic32mx/4.5.2/../../../../pic32mx/lib/./proc/32MX795F512L\default_isr_vectors.o
                0x00000400                PROVIDE (_min_stack_size, 0x400)
LOAD c:/program files/microchip/xc32/v1.31/bin/../lib/gcc/pic32mx/4.5.2/../../../../pic32mx/lib/./proc/32MX795F512L\processor.o
START GROUP
LOAD c:/program files/microchip/xc32/v1.31/bin/../lib/gcc/pic32mx/4.5.2/../../../../pic32mx/lib\libmchp_peripheral.a
END GROUP
START GROUP
LOAD c:/program files/microchip/xc32/v1.31/bin/../lib/gcc/pic32mx/4.5.2/../../../../pic32mx/lib\libmchp_peripheral_32MX795F512L.a
END GROUP
                0x00000001                PROVIDE (_vector_spacing, 0x1)
                0x9fc01000                _ebase_address = 0x9fc01000
                0xbfc00000                _RESET_ADDR = 0xbfc00000
                0xbfc00380                _BEV_EXCPT_ADDR = 0xbfc00380
                0xbfc00480                _DBG_EXCPT_ADDR = 0xbfc00480
                0xbfc02000                _DBG_CODE_ADDR = 0xbfc02000
                0x00000ff0                _DBG_CODE_SIZE = 0xff0
                0x9fc01180                _GEN_EXCPT_ADDR = (_ebase_address + 0x180)

.config_BFC02FF0
                0xbfc02ff0        0x4
 *(.config_BFC02FF0)
 .config_BFC02FF0
                0xbfc02ff0        0x4 build/XC32-PIC32_ETH_SK_ETH795/production/_ext/1360937237/Main.o

.config_BFC02FF4
                0xbfc02ff4        0x4
 *(.config_BFC02FF4)
 .config_BFC02FF4
                0xbfc02ff4        0x4 build/XC32-PIC32_ETH_SK_ETH795/production/_ext/1360937237/Main.o

.config_BFC02FF8
                0xbfc02ff8        0x4
 *(.config_BFC02FF8)
 .config_BFC02FF8
                0xbfc02ff8        0x4 build/XC32-PIC32_ETH_SK_ETH795/production/_ext/1360937237/Main.o

.config_BFC02FFC
                0xbfc02ffc        0x4
 *(.config_BFC02FFC)
 .config_BFC02FFC
                0xbfc02ffc        0x4 build/XC32-PIC32_ETH_SK_ETH795/production/_ext/1360937237/Main.o
                0xbfc02000                PROVIDE (_DBG_CODE_ADDR, 0xbfc02000)
                0x00000ff0                PROVIDE (_DBG_CODE_SIZE, 0xff0)

.reset          0xbfc00000      0x1e8
 *(.reset)
 .reset         0xbfc00000      0x1e8 c:/program files/microchip/xc32/v1.31/bin/../lib/gcc/pic32mx/4.5.2/../../../../pic32mx/lib/./proc/32MX795F512L/crt0_mips32r2.o
                0xbfc00000                _reset
 *(.reset.startup)

.bev_excpt      0xbfc00380       0x10
 *(.bev_handler)
 .bev_handler   0xbfc00380       0x10 c:/program files/microchip/xc32/v1.31/bin/../lib/gcc/pic32mx/4.5.2/../../../../pic32mx/lib/./proc/32MX795F512L/crt0_mips32r2.o

.dbg_excpt      0xbfc00480        0x0
                0xbfc00480                . = (. + DEFINED (_DEBUGGER)?0x8:0x0)

.dbg_code       0xbfc02000        0x0
                0xbfc02000                . = (. + DEFINED (_DEBUGGER)?_DBG_CODE_SIZE:0x0)

.app_excpt      0x9fc01180       0x10
 *(.gen_handler)
 .gen_handler   0x9fc01180       0x10 c:/program files/microchip/xc32/v1.31/bin/../lib/gcc/pic32mx/4.5.2/../../../../pic32mx/lib/./proc/32MX795F512L/crt0_mips32r2.o

.vector_0       0x9fc01200        0x8
 *(.vector_0)
 .vector_0      0x9fc01200        0x8 c:/program files/microchip/xc32/v1.31/bin/../lib/gcc/pic32mx/4.5.2/../../../../pic32mx/lib\libpic32.a(vector0.o)
                0x9fc01200                __vector_dispatch_0
                0x00000001                ASSERT (((_vector_spacing == 0x0) || (SIZEOF (.vector_0) <= (_vector_spacing << 0x5))), function at exception vector 0 too large)

.vector_1       0x9fc01220        0x8
 *(.vector_1)
 .vector_1      0x9fc01220        0x8 c:/program files/microchip/xc32/v1.31/bin/../lib/gcc/pic32mx/4.5.2/../../../../pic32mx/lib\libpic32.a(vector1.o)
                0x9fc01220                __vector_dispatch_1
                0x00000001                ASSERT (((_vector_spacing == 0x0) || (SIZEOF (.vector_1) <= (_vector_spacing << 0x5))), function at exception vector 1 too large)

.vector_2       0x9fc01240        0x8
 *(.vector_2)
 .vector_2      0x9fc01240        0x8 c:/program files/microchip/xc32/v1.31/bin/../lib/gcc/pic32mx/4.5.2/../../../../pic32mx/lib\libpic32.a(vector2.o)
                0x9fc01240                __vector_dispatch_2
                0x00000001                ASSERT (((_vector_spacing == 0x0) || (SIZEOF (.vector_2) <= (_vector_spacing << 0x5))), function at exception vector 2 too large)

.vector_3       0x9fc01260        0x8
 *(.vector_3)
 .vector_3      0x9fc01260        0x8 c:/program files/microchip/xc32/v1.31/bin/../lib/gcc/pic32mx/4.5.2/../../../../pic32mx/lib\libpic32.a(vector3.o)
                0x9fc01260                __vector_dispatch_3
                0x00000001                ASSERT (((_vector_spacing == 0x0) || (SIZEOF (.vector_3) <= (_vector_spacing << 0x5))), function at exception vector 3 too large)

.vector_4       0x9fc01280        0x8
 *(.vector_4)
 .vector_4      0x9fc01280        0x8 build/XC32-PIC32_ETH_SK_ETH795/production/_ext/1840844407/Tick.o
                0x9fc01280                __vector_dispatch_4
                0x00000001                ASSERT (((_vector_spacing == 0x0) || (SIZEOF (.vector_4) <= (_vector_spacing << 0x5))), function at exception vector 4 too large)

.vector_5       0x9fc012a0        0x8
 *(.vector_5)
 .vector_5      0x9fc012a0        0x8 c:/program files/microchip/xc32/v1.31/bin/../lib/gcc/pic32mx/4.5.2/../../../../pic32mx/lib\libpic32.a(vector5.o)
                0x9fc012a0                __vector_dispatch_5
                0x00000001                ASSERT (((_vector_spacing == 0x0) || (SIZEOF (.vector_5) <= (_vector_spacing << 0x5))), function at exception vector 5 too large)

.vector_6       0x9fc012c0        0x8
 *(.vector_6)
 .vector_6      0x9fc012c0        0x8 c:/program files/microchip/xc32/v1.31/bin/../lib/gcc/pic32mx/4.5.2/../../../../pic32mx/lib\libpic32.a(vector6.o)
                0x9fc012c0                __vector_dispatch_6
                0x00000001                ASSERT (((_vector_spacing == 0x0) || (SIZEOF (.vector_6) <= (_vector_spacing << 0x5))), function at exception vector 6 too large)

.vector_7       0x9fc012e0        0x8
 *(.vector_7)
 .vector_7      0x9fc012e0        0x8 c:/program files/microchip/xc32/v1.31/bin/../lib/gcc/pic32mx/4.5.2/../../../../pic32mx/lib\libpic32.a(vector7.o)
                0x9fc012e0                __vector_dispatch_7
                0x00000001                ASSERT (((_vector_spacing == 0x0) || (SIZEOF (.vector_7) <= (_vector_spacing << 0x5))), function at exception vector 7 too large)

.vector_8       0x9fc01300        0x8
 *(.vector_8)
 .vector_8      0x9fc01300        0x8 c:/program files/microchip/xc32/v1.31/bin/../lib/gcc/pic32mx/4.5.2/../../../../pic32mx/lib\libpic32.a(vector8.o)
                0x9fc01300                __vector_dispatch_8
                0x00000001                ASSERT (((_vector_spacing == 0x0) || (SIZEOF (.vector_8) <= (_vector_spacing << 0x5))), function at exception vector 8 too large)

.vector_9       0x9fc01320        0x8
 *(.vector_9)
 .vector_9      0x9fc01320        0x8 c:/program files/microchip/xc32/v1.31/bin/../lib/gcc/pic32mx/4.5.2/../../../../pic32mx/lib\libpic32.a(vector9.o)
                0x9fc01320                __vector_dispatch_9
                0x00000001                ASSERT (((_vector_spacing == 0x0) || (SIZEOF (.vector_9) <= (_vector_spacing << 0x5))), function at exception vector 9 too large)

.vector_10      0x9fc01340        0x8
 *(.vector_10)
 .vector_10     0x9fc01340        0x8 c:/program files/microchip/xc32/v1.31/bin/../lib/gcc/pic32mx/4.5.2/../../../../pic32mx/lib\libpic32.a(vector10.o)
                0x9fc01340                __vector_dispatch_10
                0x00000001                ASSERT (((_vector_spacing == 0x0) || (SIZEOF (.vector_10) <= (_vector_spacing << 0x5))), function at exception vector 10 too large)

.vector_11      0x9fc01360        0x8
 *(.vector_11)
 .vector_11     0x9fc01360        0x8 c:/program files/microchip/xc32/v1.31/bin/../lib/gcc/pic32mx/4.5.2/../../../../pic32mx/lib\libpic32.a(vector11.o)
                0x9fc01360                __vector_dispatch_11
                0x00000001                ASSERT (((_vector_spacing == 0x0) || (SIZEOF (.vector_11) <= (_vector_spacing << 0x5))), function at exception vector 11 too large)

.vector_12      0x9fc01380        0x8
 *(.vector_12)
 .vector_12     0x9fc01380        0x8 c:/program files/microchip/xc32/v1.31/bin/../lib/gcc/pic32mx/4.5.2/../../../../pic32mx/lib\libpic32.a(vector12.o)
                0x9fc01380                __vector_dispatch_12
                0x00000001                ASSERT (((_vector_spacing == 0x0) || (SIZEOF (.vector_12) <= (_vector_spacing << 0x5))), function at exception vector 12 too large)

.vector_13      0x9fc013a0        0x8
 *(.vector_13)
 .vector_13     0x9fc013a0        0x8 c:/program files/microchip/xc32/v1.31/bin/../lib/gcc/pic32mx/4.5.2/../../../../pic32mx/lib\libpic32.a(vector13.o)
                0x9fc013a0                __vector_dispatch_13
                0x00000001                ASSERT (((_vector_spacing == 0x0) || (SIZEOF (.vector_13) <= (_vector_spacing << 0x5))), function at exception vector 13 too large)

.vector_14      0x9fc013c0        0x8
 *(.vector_14)
 .vector_14     0x9fc013c0        0x8 c:/program files/microchip/xc32/v1.31/bin/../lib/gcc/pic32mx/4.5.2/../../../../pic32mx/lib\libpic32.a(vector14.o)
                0x9fc013c0                __vector_dispatch_14
                0x00000001                ASSERT (((_vector_spacing == 0x0) || (SIZEOF (.vector_14) <= (_vector_spacing << 0x5))), function at exception vector 14 too large)

.vector_15      0x9fc013e0        0x8
 *(.vector_15)
 .vector_15     0x9fc013e0        0x8 c:/program files/microchip/xc32/v1.31/bin/../lib/gcc/pic32mx/4.5.2/../../../../pic32mx/lib\libpic32.a(vector15.o)
                0x9fc013e0                __vector_dispatch_15
                0x00000001                ASSERT (((_vector_spacing == 0x0) || (SIZEOF (.vector_15) <= (_vector_spacing << 0x5))), function at exception vector 15 too large)

.vector_16      0x9fc01400        0x8
 *(.vector_16)
 .vector_16     0x9fc01400        0x8 c:/program files/microchip/xc32/v1.31/bin/../lib/gcc/pic32mx/4.5.2/../../../../pic32mx/lib\libpic32.a(vector16.o)
                0x9fc01400                __vector_dispatch_16
                0x00000001                ASSERT (((_vector_spacing == 0x0) || (SIZEOF (.vector_16) <= (_vector_spacing << 0x5))), function at exception vector 16 too large)

.vector_17      0x9fc01420        0x8
 *(.vector_17)
 .vector_17     0x9fc01420        0x8 c:/program files/microchip/xc32/v1.31/bin/../lib/gcc/pic32mx/4.5.2/../../../../pic32mx/lib\libpic32.a(vector17.o)
                0x9fc01420                __vector_dispatch_17
                0x00000001                ASSERT (((_vector_spacing == 0x0) || (SIZEOF (.vector_17) <= (_vector_spacing << 0x5))), function at exception vector 17 too large)

.vector_18      0x9fc01440        0x8
 *(.vector_18)
 .vector_18     0x9fc01440        0x8 c:/program files/microchip/xc32/v1.31/bin/../lib/gcc/pic32mx/4.5.2/../../../../pic32mx/lib\libpic32.a(vector18.o)
                0x9fc01440                __vector_dispatch_18
                0x00000001                ASSERT (((_vector_spacing == 0x0) || (SIZEOF (.vector_18) <= (_vector_spacing << 0x5))), function at exception vector 18 too large)

.vector_19      0x9fc01460        0x8
 *(.vector_19)
 .vector_19     0x9fc01460        0x8 c:/program files/microchip/xc32/v1.31/bin/../lib/gcc/pic32mx/4.5.2/../../../../pic32mx/lib\libpic32.a(vector19.o)
                0x9fc01460                __vector_dispatch_19
                0x00000001                ASSERT (((_vector_spacing == 0x0) || (SIZEOF (.vector_19) <= (_vector_spacing << 0x5))), function at exception vector 19 too large)

.vector_20      0x9fc01480        0x8
 *(.vector_20)
 .vector_20     0x9fc01480        0x8 c:/program files/microchip/xc32/v1.31/bin/../lib/gcc/pic32mx/4.5.2/../../../../pic32mx/lib\libpic32.a(vector20.o)
                0x9fc01480                __vector_dispatch_20
                0x00000001                ASSERT (((_vector_spacing == 0x0) || (SIZEOF (.vector_20) <= (_vector_spacing << 0x5))), function at exception vector 20 too large)

.vector_21      0x9fc014a0        0x8
 *(.vector_21)
 .vector_21     0x9fc014a0        0x8 c:/program files/microchip/xc32/v1.31/bin/../lib/gcc/pic32mx/4.5.2/../../../../pic32mx/lib\libpic32.a(vector21.o)
                0x9fc014a0                __vector_dispatch_21
                0x00000001                ASSERT (((_vector_spacing == 0x0) || (SIZEOF (.vector_21) <= (_vector_spacing << 0x5))), function at exception vector 21 too large)

.vector_22      0x9fc014c0        0x8
 *(.vector_22)
 .vector_22     0x9fc014c0        0x8 c:/program files/microchip/xc32/v1.31/bin/../lib/gcc/pic32mx/4.5.2/../../../../pic32mx/lib\libpic32.a(vector22.o)
                0x9fc014c0                __vector_dispatch_22
                0x00000001                ASSERT (((_vector_spacing == 0x0) || (SIZEOF (.vector_22) <= (_vector_spacing << 0x5))), function at exception vector 22 too large)

.vector_23      0x9fc014e0        0x8
 *(.vector_23)
 .vector_23     0x9fc014e0        0x8 c:/program files/microchip/xc32/v1.31/bin/../lib/gcc/pic32mx/4.5.2/../../../../pic32mx/lib\libpic32.a(vector23.o)
                0x9fc014e0                __vector_dispatch_23
                0x00000001                ASSERT (((_vector_spacing == 0x0) || (SIZEOF (.vector_23) <= (_vector_spacing << 0x5))), function at exception vector 23 too large)

.vector_24      0x9fc01500        0x8
 *(.vector_24)
 .vector_24     0x9fc01500        0x8 c:/program files/microchip/xc32/v1.31/bin/../lib/gcc/pic32mx/4.5.2/../../../../pic32mx/lib\libpic32.a(vector24.o)
                0x9fc01500                __vector_dispatch_24
                0x00000001                ASSERT (((_vector_spacing == 0x0) || (SIZEOF (.vector_24) <= (_vector_spacing << 0x5))), function at exception vector 24 too large)

.vector_25      0x9fc01520        0x8
 *(.vector_25)
 .vector_25     0x9fc01520        0x8 c:/program files/microchip/xc32/v1.31/bin/../lib/gcc/pic32mx/4.5.2/../../../../pic32mx/lib\libpic32.a(vector25.o)
                0x9fc01520                __vector_dispatch_25
                0x00000001                ASSERT (((_vector_spacing == 0x0) || (SIZEOF (.vector_25) <= (_vector_spacing << 0x5))), function at exception vector 25 too large)

.vector_26      0x9fc01540        0x8
 *(.vector_26)
 .vector_26     0x9fc01540        0x8 c:/program files/microchip/xc32/v1.31/bin/../lib/gcc/pic32mx/4.5.2/../../../../pic32mx/lib\libpic32.a(vector26.o)
                0x9fc01540                __vector_dispatch_26
                0x00000001                ASSERT (((_vector_spacing == 0x0) || (SIZEOF (.vector_26) <= (_vector_spacing << 0x5))), function at exception vector 26 too large)

.vector_27      0x9fc01560        0x8
 *(.vector_27)
 .vector_27     0x9fc01560        0x8 c:/program files/microchip/xc32/v1.31/bin/../lib/gcc/pic32mx/4.5.2/../../../../pic32mx/lib\libpic32.a(vector27.o)
                0x9fc01560                __vector_dispatch_27
                0x00000001                ASSERT (((_vector_spacing == 0x0) || (SIZEOF (.vector_27) <= (_vector_spacing << 0x5))), function at exception vector 27 too large)

.vector_28      0x9fc01580        0x8
 *(.vector_28)
 .vector_28     0x9fc01580        0x8 c:/program files/microchip/xc32/v1.31/bin/../lib/gcc/pic32mx/4.5.2/../../../../pic32mx/lib\libpic32.a(vector28.o)
                0x9fc01580                __vector_dispatch_28
                0x00000001                ASSERT (((_vector_spacing == 0x0) || (SIZEOF (.vector_28) <= (_vector_spacing << 0x5))), function at exception vector 28 too large)

.vector_29      0x9fc015a0        0x8
 *(.vector_29)
 .vector_29     0x9fc015a0        0x8 c:/program files/microchip/xc32/v1.31/bin/../lib/gcc/pic32mx/4.5.2/../../../../pic32mx/lib\libpic32.a(vector29.o)
                0x9fc015a0                __vector_dispatch_29
                0x00000001                ASSERT (((_vector_spacing == 0x0) || (SIZEOF (.vector_29) <= (_vector_spacing << 0x5))), function at exception vector 29 too large)

.vector_30      0x9fc015c0        0x8
 *(.vector_30)
 .vector_30     0x9fc015c0        0x8 c:/program files/microchip/xc32/v1.31/bin/../lib/gcc/pic32mx/4.5.2/../../../../pic32mx/lib\libpic32.a(vector30.o)
                0x9fc015c0                __vector_dispatch_30
                0x00000001                ASSERT (((_vector_spacing == 0x0) || (SIZEOF (.vector_30) <= (_vector_spacing << 0x5))), function at exception vector 30 too large)

.vector_31      0x9fc015e0        0x8
 *(.vector_31)
 .vector_31     0x9fc015e0        0x8 c:/program files/microchip/xc32/v1.31/bin/../lib/gcc/pic32mx/4.5.2/../../../../pic32mx/lib\libpic32.a(vector31.o)
                0x9fc015e0                __vector_dispatch_31
                0x00000001                ASSERT (((_vector_spacing == 0x0) || (SIZEOF (.vector_31) <= (_vector_spacing << 0x5))), function at exception vector 31 too large)

.vector_32      0x9fc01600        0x8
 *(.vector_32)
 .vector_32     0x9fc01600        0x8 c:/program files/microchip/xc32/v1.31/bin/../lib/gcc/pic32mx/4.5.2/../../../../pic32mx/lib\libpic32.a(vector32.o)
                0x9fc01600                __vector_dispatch_32
                0x00000001                ASSERT (((_vector_spacing == 0x0) || (SIZEOF (.vector_32) <= (_vector_spacing << 0x5))), function at exception vector 32 too large)

.vector_33      0x9fc01620        0x8
 *(.vector_33)
 .vector_33     0x9fc01620        0x8 c:/program files/microchip/xc32/v1.31/bin/../lib/gcc/pic32mx/4.5.2/../../../../pic32mx/lib\libpic32.a(vector33.o)
                0x9fc01620                __vector_dispatch_33
                0x00000001                ASSERT (((_vector_spacing == 0x0) || (SIZEOF (.vector_33) <= (_vector_spacing << 0x5))), function at exception vector 33 too large)

.vector_34      0x9fc01640        0x8
 *(.vector_34)
 .vector_34     0x9fc01640        0x8 c:/program files/microchip/xc32/v1.31/bin/../lib/gcc/pic32mx/4.5.2/../../../../pic32mx/lib\libpic32.a(vector34.o)
                0x9fc01640                __vector_dispatch_34
                0x00000001                ASSERT (((_vector_spacing == 0x0) || (SIZEOF (.vector_34) <= (_vector_spacing << 0x5))), function at exception vector 34 too large)

.vector_35      0x9fc01660        0x8
 *(.vector_35)
 .vector_35     0x9fc01660        0x8 c:/program files/microchip/xc32/v1.31/bin/../lib/gcc/pic32mx/4.5.2/../../../../pic32mx/lib\libpic32.a(vector35.o)
                0x9fc01660                __vector_dispatch_35
                0x00000001                ASSERT (((_vector_spacing == 0x0) || (SIZEOF (.vector_35) <= (_vector_spacing << 0x5))), function at exception vector 35 too large)

.vector_36      0x9fc01680        0x8
 *(.vector_36)
 .vector_36     0x9fc01680        0x8 c:/program files/microchip/xc32/v1.31/bin/../lib/gcc/pic32mx/4.5.2/../../../../pic32mx/lib\libpic32.a(vector36.o)
                0x9fc01680                __vector_dispatch_36
                0x00000001                ASSERT (((_vector_spacing == 0x0) || (SIZEOF (.vector_36) <= (_vector_spacing << 0x5))), function at exception vector 36 too large)

.vector_37      0x9fc016a0        0x8
 *(.vector_37)
 .vector_37     0x9fc016a0        0x8 c:/program files/microchip/xc32/v1.31/bin/../lib/gcc/pic32mx/4.5.2/../../../../pic32mx/lib\libpic32.a(vector37.o)
                0x9fc016a0                __vector_dispatch_37
                0x00000001                ASSERT (((_vector_spacing == 0x0) || (SIZEOF (.vector_37) <= (_vector_spacing << 0x5))), function at exception vector 37 too large)

.vector_38      0x9fc016c0        0x8
 *(.vector_38)
 .vector_38     0x9fc016c0        0x8 c:/program files/microchip/xc32/v1.31/bin/../lib/gcc/pic32mx/4.5.2/../../../../pic32mx/lib\libpic32.a(vector38.o)
                0x9fc016c0                __vector_dispatch_38
                0x00000001                ASSERT (((_vector_spacing == 0x0) || (SIZEOF (.vector_38) <= (_vector_spacing << 0x5))), function at exception vector 38 too large)

.vector_39      0x9fc016e0        0x8
 *(.vector_39)
 .vector_39     0x9fc016e0        0x8 c:/program files/microchip/xc32/v1.31/bin/../lib/gcc/pic32mx/4.5.2/../../../../pic32mx/lib\libpic32.a(vector39.o)
                0x9fc016e0                __vector_dispatch_39
                0x00000001                ASSERT (((_vector_spacing == 0x0) || (SIZEOF (.vector_39) <= (_vector_spacing << 0x5))), function at exception vector 39 too large)

.vector_40      0x9fc01700        0x8
 *(.vector_40)
 .vector_40     0x9fc01700        0x8 c:/program files/microchip/xc32/v1.31/bin/../lib/gcc/pic32mx/4.5.2/../../../../pic32mx/lib\libpic32.a(vector40.o)
                0x9fc01700                __vector_dispatch_40
                0x00000001                ASSERT (((_vector_spacing == 0x0) || (SIZEOF (.vector_40) <= (_vector_spacing << 0x5))), function at exception vector 40 too large)

.vector_41      0x9fc01720        0x8
 *(.vector_41)
 .vector_41     0x9fc01720        0x8 c:/program files/microchip/xc32/v1.31/bin/../lib/gcc/pic32mx/4.5.2/../../../../pic32mx/lib\libpic32.a(vector41.o)
                0x9fc01720                __vector_dispatch_41
                0x00000001                ASSERT (((_vector_spacing == 0x0) || (SIZEOF (.vector_41) <= (_vector_spacing << 0x5))), function at exception vector 41 too large)

.vector_42      0x9fc01740        0x8
 *(.vector_42)
 .vector_42     0x9fc01740        0x8 c:/program files/microchip/xc32/v1.31/bin/../lib/gcc/pic32mx/4.5.2/../../../../pic32mx/lib\libpic32.a(vector42.o)
                0x9fc01740                __vector_dispatch_42
                0x00000001                ASSERT (((_vector_spacing == 0x0) || (SIZEOF (.vector_42) <= (_vector_spacing << 0x5))), function at exception vector 42 too large)

.vector_43      0x9fc01760        0x8
 *(.vector_43)
 .vector_43     0x9fc01760        0x8 c:/program files/microchip/xc32/v1.31/bin/../lib/gcc/pic32mx/4.5.2/../../../../pic32mx/lib\libpic32.a(vector43.o)
                0x9fc01760                __vector_dispatch_43
                0x00000001                ASSERT (((_vector_spacing == 0x0) || (SIZEOF (.vector_43) <= (_vector_spacing << 0x5))), function at exception vector 43 too large)

.vector_44      0x9fc01780        0x8
 *(.vector_44)
 .vector_44     0x9fc01780        0x8 c:/program files/microchip/xc32/v1.31/bin/../lib/gcc/pic32mx/4.5.2/../../../../pic32mx/lib\libpic32.a(vector44.o)
                0x9fc01780                __vector_dispatch_44
                0x00000001                ASSERT (((_vector_spacing == 0x0) || (SIZEOF (.vector_44) <= (_vector_spacing << 0x5))), function at exception vector 44 too large)

.vector_45      0x9fc017a0        0x8
 *(.vector_45)
 .vector_45     0x9fc017a0        0x8 c:/program files/microchip/xc32/v1.31/bin/../lib/gcc/pic32mx/4.5.2/../../../../pic32mx/lib\libpic32.a(vector45.o)
                0x9fc017a0                __vector_dispatch_45
                0x00000001                ASSERT (((_vector_spacing == 0x0) || (SIZEOF (.vector_45) <= (_vector_spacing << 0x5))), function at exception vector 45 too large)

.vector_46      0x9fc017c0        0x8
 *(.vector_46)
 .vector_46     0x9fc017c0        0x8 c:/program files/microchip/xc32/v1.31/bin/../lib/gcc/pic32mx/4.5.2/../../../../pic32mx/lib\libpic32.a(vector46.o)
                0x9fc017c0                __vector_dispatch_46
                0x00000001                ASSERT (((_vector_spacing == 0x0) || (SIZEOF (.vector_46) <= (_vector_spacing << 0x5))), function at exception vector 46 too large)

.vector_47      0x9fc017e0        0x8
 *(.vector_47)
 .vector_47     0x9fc017e0        0x8 c:/program files/microchip/xc32/v1.31/bin/../lib/gcc/pic32mx/4.5.2/../../../../pic32mx/lib\libpic32.a(vector47.o)
                0x9fc017e0                __vector_dispatch_47
                0x00000001                ASSERT (((_vector_spacing == 0x0) || (SIZEOF (.vector_47) <= (_vector_spacing << 0x5))), function at exception vector 47 too large)

.vector_48      0x9fc01800        0x8
 *(.vector_48)
 .vector_48     0x9fc01800        0x8 c:/program files/microchip/xc32/v1.31/bin/../lib/gcc/pic32mx/4.5.2/../../../../pic32mx/lib\libpic32.a(vector48.o)
                0x9fc01800                __vector_dispatch_48
                0x00000001                ASSERT (((_vector_spacing == 0x0) || (SIZEOF (.vector_48) <= (_vector_spacing << 0x5))), function at exception vector 48 too large)

.vector_49      0x9fc01820        0x8
 *(.vector_49)
 .vector_49     0x9fc01820        0x8 c:/program files/microchip/xc32/v1.31/bin/../lib/gcc/pic32mx/4.5.2/../../../../pic32mx/lib\libpic32.a(vector49.o)
                0x9fc01820                __vector_dispatch_49
                0x00000001                ASSERT (((_vector_spacing == 0x0) || (SIZEOF (.vector_49) <= (_vector_spacing << 0x5))), function at exception vector 49 too large)

.vector_50      0x9fc01840        0x8
 *(.vector_50)
 .vector_50     0x9fc01840        0x8 c:/program files/microchip/xc32/v1.31/bin/../lib/gcc/pic32mx/4.5.2/../../../../pic32mx/lib\libpic32.a(vector50.o)
                0x9fc01840                __vector_dispatch_50
                0x00000001                ASSERT (((_vector_spacing == 0x0) || (SIZEOF (.vector_50) <= (_vector_spacing << 0x5))), function at exception vector 50 too large)

.vector_51      0x9fc01860        0x8
 *(.vector_51)
 .vector_51     0x9fc01860        0x8 c:/program files/microchip/xc32/v1.31/bin/../lib/gcc/pic32mx/4.5.2/../../../../pic32mx/lib\libpic32.a(vector51.o)
                0x9fc01860                __vector_dispatch_51
                0x00000001                ASSERT (((_vector_spacing == 0x0) || (SIZEOF (.vector_51) <= (_vector_spacing << 0x5))), function at exception vector 51 too large)

.vector_52      0x9fc01880        0x8
 *(.vector_52)
 .vector_52     0x9fc01880        0x8 c:/program files/microchip/xc32/v1.31/bin/../lib/gcc/pic32mx/4.5.2/../../../../pic32mx/lib\libpic32.a(vector52.o)
                0x9fc01880                __vector_dispatch_52
                0x00000001                ASSERT (((_vector_spacing == 0x0) || (SIZEOF (.vector_52) <= (_vector_spacing << 0x5))), function at exception vector 52 too large)

.vector_53      0x9fc018a0        0x8
 *(.vector_53)
 .vector_53     0x9fc018a0        0x8 c:/program files/microchip/xc32/v1.31/bin/../lib/gcc/pic32mx/4.5.2/../../../../pic32mx/lib\libpic32.a(vector53.o)
                0x9fc018a0                __vector_dispatch_53
                0x00000001                ASSERT (((_vector_spacing == 0x0) || (SIZEOF (.vector_53) <= (_vector_spacing << 0x5))), function at exception vector 53 too large)

.vector_54      0x9fc018c0        0x8
 *(.vector_54)
 .vector_54     0x9fc018c0        0x8 c:/program files/microchip/xc32/v1.31/bin/../lib/gcc/pic32mx/4.5.2/../../../../pic32mx/lib\libpic32.a(vector54.o)
                0x9fc018c0                __vector_dispatch_54
                0x00000001                ASSERT (((_vector_spacing == 0x0) || (SIZEOF (.vector_54) <= (_vector_spacing << 0x5))), function at exception vector 54 too large)

.vector_55      0x9fc018e0        0x8
 *(.vector_55)
 .vector_55     0x9fc018e0        0x8 c:/program files/microchip/xc32/v1.31/bin/../lib/gcc/pic32mx/4.5.2/../../../../pic32mx/lib\libpic32.a(vector55.o)
                0x9fc018e0                __vector_dispatch_55
                0x00000001                ASSERT (((_vector_spacing == 0x0) || (SIZEOF (.vector_55) <= (_vector_spacing << 0x5))), function at exception vector 55 too large)

.vector_56      0x9fc01900        0x8
 *(.vector_56)
 .vector_56     0x9fc01900        0x8 c:/program files/microchip/xc32/v1.31/bin/../lib/gcc/pic32mx/4.5.2/../../../../pic32mx/lib\libpic32.a(vector56.o)
                0x9fc01900                __vector_dispatch_56
                0x00000001                ASSERT (((_vector_spacing == 0x0) || (SIZEOF (.vector_56) <= (_vector_spacing << 0x5))), function at exception vector 56 too large)

.vector_57      0x9fc01920        0x8
 *(.vector_57)
 .vector_57     0x9fc01920        0x8 c:/program files/microchip/xc32/v1.31/bin/../lib/gcc/pic32mx/4.5.2/../../../../pic32mx/lib\libpic32.a(vector57.o)
                0x9fc01920                __vector_dispatch_57
                0x00000001                ASSERT (((_vector_spacing == 0x0) || (SIZEOF (.vector_57) <= (_vector_spacing << 0x5))), function at exception vector 57 too large)

.vector_58      0x9fc01940        0x8
 *(.vector_58)
 .vector_58     0x9fc01940        0x8 c:/program files/microchip/xc32/v1.31/bin/../lib/gcc/pic32mx/4.5.2/../../../../pic32mx/lib\libpic32.a(vector58.o)
                0x9fc01940                __vector_dispatch_58
                0x00000001                ASSERT (((_vector_spacing == 0x0) || (SIZEOF (.vector_58) <= (_vector_spacing << 0x5))), function at exception vector 58 too large)

.vector_59      0x9fc01960        0x8
 *(.vector_59)
 .vector_59     0x9fc01960        0x8 c:/program files/microchip/xc32/v1.31/bin/../lib/gcc/pic32mx/4.5.2/../../../../pic32mx/lib\libpic32.a(vector59.o)
                0x9fc01960                __vector_dispatch_59
                0x00000001                ASSERT (((_vector_spacing == 0x0) || (SIZEOF (.vector_59) <= (_vector_spacing << 0x5))), function at exception vector 59 too large)

.vector_60      0x9fc01980        0x8
 *(.vector_60)
 .vector_60     0x9fc01980        0x8 c:/program files/microchip/xc32/v1.31/bin/../lib/gcc/pic32mx/4.5.2/../../../../pic32mx/lib\libpic32.a(vector60.o)
                0x9fc01980                __vector_dispatch_60
                0x00000001                ASSERT (((_vector_spacing == 0x0) || (SIZEOF (.vector_60) <= (_vector_spacing << 0x5))), function at exception vector 60 too large)

.vector_61      0x9fc019a0        0x8
 *(.vector_61)
 .vector_61     0x9fc019a0        0x8 c:/program files/microchip/xc32/v1.31/bin/../lib/gcc/pic32mx/4.5.2/../../../../pic32mx/lib\libpic32.a(vector61.o)
                0x9fc019a0                __vector_dispatch_61
                0x00000001                ASSERT (((_vector_spacing == 0x0) || (SIZEOF (.vector_61) <= (_vector_spacing << 0x5))), function at exception vector 61 too large)

.vector_62      0x9fc019c0        0x8
 *(.vector_62)
 .vector_62     0x9fc019c0        0x8 c:/program files/microchip/xc32/v1.31/bin/../lib/gcc/pic32mx/4.5.2/../../../../pic32mx/lib\libpic32.a(vector62.o)
                0x9fc019c0                __vector_dispatch_62
                0x00000001                ASSERT (((_vector_spacing == 0x0) || (SIZEOF (.vector_62) <= (_vector_spacing << 0x5))), function at exception vector 62 too large)

.vector_63      0x9fc019e0        0x8
 *(.vector_63)
 .vector_63     0x9fc019e0        0x8 c:/program files/microchip/xc32/v1.31/bin/../lib/gcc/pic32mx/4.5.2/../../../../pic32mx/lib\libpic32.a(vector63.o)
                0x9fc019e0                __vector_dispatch_63
                0x00000001                ASSERT (((_vector_spacing == 0x0) || (SIZEOF (.vector_63) <= (_vector_spacing << 0x5))), function at exception vector 63 too large)

.startup
 *(.startup)

.text           0x9d000000        0x0
 *(.stub .gnu.linkonce.t.*)
 *(.text.*personality*)
 *(.mips16.fn.*)
 *(.mips16.call.*)
 *(.gnu.warning)
                0x9d000000                . = ALIGN (0x4)

.init           0x9d000000        0x0
 *crti.o(.init)
 *crtbegin.o(.init)
 *(EXCLUDE_FILE(*crtn.o *crtend?.o *crtend.o) .init)
 *crtend.o(.init)
 *crtn.o(.init)
                0x9d000000                . = ALIGN (0x4)

.fini           0x9d000000        0x0
 *(.fini)
                0x9d000000                . = ALIGN (0x4)

.preinit_array  0x9d000000        0x0
                0x9d000000                PROVIDE (__preinit_array_start, .)
 *(.preinit_array)
                0x9d000000                PROVIDE (__preinit_array_end, .)
                0x9d000000                . = ALIGN (0x4)

.init_array     0x9d000000        0x0
                0x9d000000                PROVIDE (__init_array_start, .)
 *(SORT(.init_array.*))
 *(.init_array)
                0x9d000000                PROVIDE (__init_array_end, .)
                0x9d000000                . = ALIGN (0x4)

.fini_array     0x9d000000        0x0
                0x9d000000                PROVIDE (__fini_array_start, .)
 *(SORT(.fini_array.*))
 *(.fini_array)
                0x9d000000                PROVIDE (__fini_array_end, .)
                0x9d000000                . = ALIGN (0x4)

.ctors          0x9d000000        0x0
 *crtbegin.o(.ctors)
 *crtbegin?.o(.ctors)
 *(EXCLUDE_FILE(*crtend?.o *crtend.o) .ctors)
 *(SORT(.ctors.*))
 *(.ctors)
                0x9d000000                . = ALIGN (0x4)

.dtors          0x9d000000        0x0
 *crtbegin.o(.dtors)
 *crtbegin?.o(.dtors)
 *(EXCLUDE_FILE(*crtend?.o *crtend.o) .dtors)
 *(SORT(.dtors.*))
 *(.dtors)
                0x9d000000                . = ALIGN (0x4)

.rodata         0x9d000000        0x0
 *(.gnu.linkonce.r.*)
 *(.rodata1)
                0x9d000000                . = ALIGN (0x4)

.sdata2         0x9fc00490        0x0
 *(.sdata2 .sdata2.* .gnu.linkonce.s2.*)
                0x9fc00490                . = ALIGN (0x4)

.sbss2          0x9fc00490        0x0
 *(.sbss2 .sbss2.* .gnu.linkonce.sb2.*)
                0x9fc00490                . = ALIGN (0x4)

.eh_frame_hdr
 *(.eh_frame_hdr)
                0x9fc00490                . = ALIGN (0x4)

.eh_frame
 *(.eh_frame)
                0x9fc00490                . = ALIGN (0x4)

.gcc_except_table
 *(.gcc_except_table .gcc_except_table.*)
                0x9fc00490                . = ALIGN (0x4)

.dbg_data       0xa0000000        0x0
                0xa0000000                . = (. + DEFINED (_DEBUGGER)?0x200:0x0)

.jcr            0xa0000000        0x0
 *(.jcr)
                0xa0000000                . = ALIGN (0x4)

.eh_frame       0xa0000000       0x30
 *(.eh_frame)
 .eh_frame      0xa0000000       0x20 c:/program files/microchip/xc32/v1.31/bin/../lib/gcc/pic32mx/4.5.2\libgcc.a(_udivdi3.o)
 .eh_frame      0xa0000020       0x10 c:/program files/microchip/xc32/v1.31/bin/../lib/gcc/pic32mx/4.5.2\libgcc.a(_umoddi3.o)
                0xa0000030                . = ALIGN (0x4)

.gcc_except_table
 *(.gcc_except_table .gcc_except_table.*)
                0xa0000030                . = ALIGN (0x4)

.persist        0xa0000030        0x0
                0xa0000030                _persist_begin = .
 *(.persist .persist.*)
 *(.pbss .pbss.*)
                0xa0000030                . = ALIGN (0x4)
                0xa0000030                _persist_end = .

.data           0xa0000030        0x0
 *(.gnu.linkonce.d.*)
 *(.data1)
                0xa0000030                . = ALIGN (0x4)
                0xa0000030                . = .
                0xa0008020                _gp = (ALIGN (0x10) + 0x7ff0)

.got            0xa0000030        0x0
 *(.got.plt)
 *(.got)
                0xa0000030                . = ALIGN (0x4)

.sdata          0xa0000030       0x24
                0xa0000030                _sdata_begin = .
 *(.sdata .sdata.* .gnu.linkonce.s.*)
 .sdata         0xa0000030        0xc build/XC32-PIC32_ETH_SK_ETH795/production/_ext/1840844407/DHCPs.o
                0xa0000034                bDHCPServerEnabled
 .sdata         0xa000003c        0x8 build/XC32-PIC32_ETH_SK_ETH795/production/_ext/1840844407/DNS.o
 .sdata         0xa0000044        0x1 build/XC32-PIC32_ETH_SK_ETH795/production/_ext/1840844407/DynDNS.o
 *fill*         0xa0000045        0x3 
 .sdata         0xa0000048        0x4 build/XC32-PIC32_ETH_SK_ETH795/production/_ext/1840844407/Helpers.o
 .sdata         0xa000004c        0x1 build/XC32-PIC32_ETH_SK_ETH795/production/_ext/1840844407/Reboot.o
 .sdata         0xa000004d        0x2 build/XC32-PIC32_ETH_SK_ETH795/production/_ext/1840844407/TCP.o
 .sdata         0xa000004f        0x2 build/XC32-PIC32_ETH_SK_ETH795/production/_ext/1840844407/UDP.o
                0xa0000054                . = ALIGN (0x4)
 *fill*         0xa0000051        0x3 
                0xa0000054                _sdata_end = .

.lit8
 *(.lit8)

.lit4
 *(.lit4)
                0xa0000054                . = ALIGN (0x4)
                0xa0000054                _data_end = .
                0xa0000054                _bss_begin = .

.sbss           0xa0000054      0x14c
                0xa0000054                _sbss_begin = .
 *(.dynsbss)
 *(.sbss .sbss.* .gnu.linkonce.sb.*)
 .sbss          0xa0000054        0x4 build/XC32-PIC32_ETH_SK_ETH795/production/_ext/1840844407/ARP.o
 .sbss          0xa0000058        0x4 build/XC32-PIC32_ETH_SK_ETH795/production/_ext/1840844407/DHCP.o
                0xa0000058                DHCPClientInitializedOnce
 .sbss          0xa000005c        0xc build/XC32-PIC32_ETH_SK_ETH795/production/_ext/1840844407/DHCPs.o
 .sbss          0xa0000068       0x14 build/XC32-PIC32_ETH_SK_ETH795/production/_ext/1840844407/DNS.o
 .sbss          0xa000007c       0x24 build/XC32-PIC32_ETH_SK_ETH795/production/_ext/1840844407/DynDNS.o
 .sbss          0xa00000a0       0x40 build/XC32-PIC32_ETH_SK_ETH795/production/_ext/1840844407/ETHPIC32IntMac.o
                0xa00000cc                _stackMgrRxOkPkts
                0xa00000d0                _stackMgrRxBadPkts
                0xa00000d4                _stackMgrInGetHdr
                0xa00000d8                _stackMgrRxDiscarded
                0xa00000dc                _stackMgrTxNotReady
 .sbss          0xa00000e0       0x10 build/XC32-PIC32_ETH_SK_ETH795/production/_ext/1840844407/ICMP.o
 .sbss          0xa00000f0        0x4 build/XC32-PIC32_ETH_SK_ETH795/production/_ext/1840844407/IP.o
 .sbss          0xa00000f4        0x8 build/XC32-PIC32_ETH_SK_ETH795/production/_ext/1840844407/MPFS2.o
 .sbss          0xa00000fc        0x8 build/XC32-PIC32_ETH_SK_ETH795/production/_ext/1840844407/NBNS.o
 .sbss          0xa0000104        0xc build/XC32-PIC32_ETH_SK_ETH795/production/_ext/1840844407/StackTsk.o
 .sbss          0xa0000110       0x10 build/XC32-PIC32_ETH_SK_ETH795/production/_ext/1840844407/Tick.o
 .sbss          0xa0000120        0x8 build/XC32-PIC32_ETH_SK_ETH795/production/_ext/1840844407/UDP.o
 .sbss          0xa0000128        0xc build/XC32-PIC32_ETH_SK_ETH795/production/_ext/1360937237/Main.o
 .sbss          0xa0000134        0x8 build/XC32-PIC32_ETH_SK_ETH795/production/_ext/1360937237/Ping.o
 .sbss          0xa000013c        0xc build/XC32-PIC32_ETH_SK_ETH795/production/_ext/1360937237/HTTPApp.o
 .sbss          0xa0000148        0x8 build/XC32-PIC32_ETH_SK_ETH795/production/_ext/1360937237/artnet.o
 .sbss          0xa0000150       0x20 c:/program files/microchip/xc32/v1.31/bin/../lib/gcc/pic32mx/4.5.2/../../../../pic32mx/lib\libmchp_peripheral_32MX795F512L.a(eth_descriptors_add_lib.o)
                0xa0000150                _EthTxFreeList
                0xa0000158                _EthTxBusyList
                0xa0000160                _EthRxFreeList
                0xa0000168                _EthRxBusyList
 .sbss          0xa0000170       0x10 c:/program files/microchip/xc32/v1.31/bin/../lib/gcc/pic32mx/4.5.2/../../../../pic32mx/lib\libc.a(malloc.o)
                0xa0000170                __allocp
                0xa0000174                __alloct
                0xa0000178                __allocx
 .sbss          0xa0000180        0x8 c:/program files/microchip/xc32/v1.31/bin/../lib/gcc/pic32mx/4.5.2/../../../../pic32mx/lib\libpic32.a(sbrk.o)
                0xa0000180                _minbrk
                0xa0000184                _maxbrk
 .sbss          0xa0000188        0x4 c:/program files/microchip/xc32/v1.31/bin/../lib/gcc/pic32mx/4.5.2/../../../../pic32mx/lib\libpic32.a(errno.o)
                0xa0000188                errno
 *(.scommon)
 .scommon       0xa000018c        0x4 build/XC32-PIC32_ETH_SK_ETH795/production/_ext/1840844407/ETHPIC32ExtPhy.o
                0xa000018c                _PhyAdd
 .scommon       0xa0000190        0x1 build/XC32-PIC32_ETH_SK_ETH795/production/_ext/1840844407/HTTP2.o
                0xa0000190                curHTTPID
 *fill*         0xa0000191        0x1 
 .scommon       0xa0000192        0x5 build/XC32-PIC32_ETH_SK_ETH795/production/_ext/1840844407/UDP.o
                0xa0000192                UDPRxCount
                0xa0000194                UDPTxCount
                0xa0000196                activeUDPSocket
 *fill*         0xa0000197        0x1 
 .scommon       0xa0000198        0x8 build/XC32-PIC32_ETH_SK_ETH795/production/_ext/1360937237/Main.o
                0xa0000198                AN0String
                0xa00001a0                _sbss_end = .
                0xa00001a0                . = ALIGN (0x4)

.bss            0xa00001a0      0x294
 *(.dynbss)
 *(COMMON)
 COMMON         0xa00001a0       0x78 build/XC32-PIC32_ETH_SK_ETH795/production/_ext/1840844407/DHCPs.o
                0xa00001a0                DhcpIpPool
 COMMON         0xa0000218       0x20 build/XC32-PIC32_ETH_SK_ETH795/production/_ext/1840844407/DynDNS.o
                0xa0000218                DDNSClient
 COMMON         0xa0000238       0x9c build/XC32-PIC32_ETH_SK_ETH795/production/_ext/1840844407/HTTP2.o
                0xa0000238                curHTTP
                0xa00002c4                httpStubs
 COMMON         0xa00002d4       0x40 build/XC32-PIC32_ETH_SK_ETH795/production/_ext/1840844407/Hashes.o
                0xa00002d4                lastBlock
 COMMON         0xa0000314        0xa build/XC32-PIC32_ETH_SK_ETH795/production/_ext/1840844407/StackTsk.o
                0xa0000314                remoteNode
 *fill*         0xa000031e        0x2 
 COMMON         0xa0000320       0xe0 build/XC32-PIC32_ETH_SK_ETH795/production/_ext/1840844407/UDP.o
                0xa0000320                UDPSocketInfo
 COMMON         0xa0000400       0x33 build/XC32-PIC32_ETH_SK_ETH795/production/_ext/1360937237/Main.o
                0xa0000400                AppConfig
                0xa0000434                . = ALIGN ((. != 0x0)?0x4:0x1)
 *fill*         0xa0000433        0x1 
                0xa0000434                . = ALIGN (0x4)
                0xa0000434                _end = .
                0xa0000434                _bss_end = .
                0x00020000                _bmxdudba_address = 0x20000
                0x00020000                _bmxdupba_address = 0x20000

/DISCARD/
 *(.pdr)
 *(.rel.dyn)
 *(.note.GNU-stack)
 *(.note.GNU-stack)
 *(.gnu_debuglink)
 *(.gnu.lto_*)
 *(.discard)

.gptab.sdata
 *(.gptab.data)
 *(.gptab.sdata)

.gptab.sbss
 *(.gptab.bss)
 *(.gptab.sbss)

.mdebug.abi32   0xa0000434        0x0
 *(.mdebug.abi32)
 .mdebug.abi32  0xa0000434        0x0 build/XC32-PIC32_ETH_SK_ETH795/production/_ext/1840844407/ARCFOUR.o
 .mdebug.abi32  0xa0000434        0x0 build/XC32-PIC32_ETH_SK_ETH795/production/_ext/1840844407/ARP.o
 .mdebug.abi32  0xa0000434        0x0 build/XC32-PIC32_ETH_SK_ETH795/production/_ext/1840844407/AutoIP.o
 .mdebug.abi32  0xa0000434        0x0 build/XC32-PIC32_ETH_SK_ETH795/production/_ext/1840844407/BigInt.o
 .mdebug.abi32  0xa0000434        0x0 build/XC32-PIC32_ETH_SK_ETH795/production/_ext/1840844407/DHCP.o
 .mdebug.abi32  0xa0000434        0x0 build/XC32-PIC32_ETH_SK_ETH795/production/_ext/1840844407/DHCPs.o
 .mdebug.abi32  0xa0000434        0x0 build/XC32-PIC32_ETH_SK_ETH795/production/_ext/1840844407/DNS.o
 .mdebug.abi32  0xa0000434        0x0 build/XC32-PIC32_ETH_SK_ETH795/production/_ext/1840844407/DNSs.o
 .mdebug.abi32  0xa0000434        0x0 build/XC32-PIC32_ETH_SK_ETH795/production/_ext/1840844407/Delay.o
 .mdebug.abi32  0xa0000434        0x0 build/XC32-PIC32_ETH_SK_ETH795/production/_ext/1840844407/DynDNS.o
 .mdebug.abi32  0xa0000434        0x0 build/XC32-PIC32_ETH_SK_ETH795/production/_ext/1840844407/ETHPIC32ExtPhy.o
 .mdebug.abi32  0xa0000434        0x0 build/XC32-PIC32_ETH_SK_ETH795/production/_ext/1840844407/ETHPIC32ExtPhyDP83848.o
 .mdebug.abi32  0xa0000434        0x0 build/XC32-PIC32_ETH_SK_ETH795/production/_ext/1840844407/ETHPIC32IntMac.o
 .mdebug.abi32  0xa0000434        0x0 build/XC32-PIC32_ETH_SK_ETH795/production/_ext/1840844407/FileSystem.o
 .mdebug.abi32  0xa0000434        0x0 build/XC32-PIC32_ETH_SK_ETH795/production/_ext/1840844407/HTTP2.o
 .mdebug.abi32  0xa0000434        0x0 build/XC32-PIC32_ETH_SK_ETH795/production/_ext/1840844407/Hashes.o
 .mdebug.abi32  0xa0000434        0x0 build/XC32-PIC32_ETH_SK_ETH795/production/_ext/1840844407/Helpers.o
 .mdebug.abi32  0xa0000434        0x0 build/XC32-PIC32_ETH_SK_ETH795/production/_ext/1840844407/ICMP.o
 .mdebug.abi32  0xa0000434        0x0 build/XC32-PIC32_ETH_SK_ETH795/production/_ext/1840844407/IP.o
 .mdebug.abi32  0xa0000434        0x0 build/XC32-PIC32_ETH_SK_ETH795/production/_ext/1840844407/MPFS2.o
 .mdebug.abi32  0xa0000434        0x0 build/XC32-PIC32_ETH_SK_ETH795/production/_ext/1472/MPFSImg2.o
 .mdebug.abi32  0xa0000434        0x0 build/XC32-PIC32_ETH_SK_ETH795/production/_ext/1840844407/NBNS.o
 .mdebug.abi32  0xa0000434        0x0 build/XC32-PIC32_ETH_SK_ETH795/production/_ext/1840844407/Random.o
 .mdebug.abi32  0xa0000434        0x0 build/XC32-PIC32_ETH_SK_ETH795/production/_ext/1840844407/Reboot.o
 .mdebug.abi32  0xa0000434        0x0 build/XC32-PIC32_ETH_SK_ETH795/production/_ext/1840844407/StackTsk.o
 .mdebug.abi32  0xa0000434        0x0 build/XC32-PIC32_ETH_SK_ETH795/production/_ext/1840844407/TCP.o
 .mdebug.abi32  0xa0000434        0x0 build/XC32-PIC32_ETH_SK_ETH795/production/_ext/1840844407/Telnet.o
 .mdebug.abi32  0xa0000434        0x0 build/XC32-PIC32_ETH_SK_ETH795/production/_ext/1840844407/Tick.o
 .mdebug.abi32  0xa0000434        0x0 build/XC32-PIC32_ETH_SK_ETH795/production/_ext/1840844407/UART.o
 .mdebug.abi32  0xa0000434        0x0 build/XC32-PIC32_ETH_SK_ETH795/production/_ext/1840844407/UDP.o
 .mdebug.abi32  0xa0000434        0x0 build/XC32-PIC32_ETH_SK_ETH795/production/_ext/1360937237/Main.o
 .mdebug.abi32  0xa0000434        0x0 build/XC32-PIC32_ETH_SK_ETH795/production/_ext/1360937237/dmx.o
 .mdebug.abi32  0xa0000434        0x0 build/XC32-PIC32_ETH_SK_ETH795/production/_ext/1360937237/gva_dmx.o
 .mdebug.abi32  0xa0000434        0x0 build/XC32-PIC32_ETH_SK_ETH795/production/_ext/1360937237/Ping.o
 .mdebug.abi32  0xa0000434        0x0 build/XC32-PIC32_ETH_SK_ETH795/production/_ext/1360937237/HTTPApp.o
 .mdebug.abi32  0xa0000434        0x0 build/XC32-PIC32_ETH_SK_ETH795/production/_ext/1360937237/artnet.o
 .mdebug.abi32  0xa0000434        0x0 c:/program files/microchip/xc32/v1.31/bin/../lib/gcc/pic32mx/4.5.2/../../../../pic32mx/lib\libmchp_peripheral.a(read_core_timer_lib.o)
 .mdebug.abi32  0xa0000434        0x0 c:/program files/microchip/xc32/v1.31/bin/../lib/gcc/pic32mx/4.5.2/../../../../pic32mx/lib\libmchp_peripheral_32MX795F512L.a(eth_ack_packet_lib.o)
 .mdebug.abi32  0xa0000434        0x0 c:/program files/microchip/xc32/v1.31/bin/../lib/gcc/pic32mx/4.5.2/../../../../pic32mx/lib\libmchp_peripheral_32MX795F512L.a(eth_descriptors_add_lib.o)
 .mdebug.abi32  0xa0000434        0x0 c:/program files/microchip/xc32/v1.31/bin/../lib/gcc/pic32mx/4.5.2/../../../../pic32mx/lib\libmchp_peripheral_32MX795F512L.a(eth_init_lib.o)
 .mdebug.abi32  0xa0000434        0x0 c:/program files/microchip/xc32/v1.31/bin/../lib/gcc/pic32mx/4.5.2/../../../../pic32mx/lib\libmchp_peripheral_32MX795F512L.a(eth_mac_open_lib.o)
 .mdebug.abi32  0xa0000434        0x0 c:/program files/microchip/xc32/v1.31/bin/../lib/gcc/pic32mx/4.5.2/../../../../pic32mx/lib\libmchp_peripheral_32MX795F512L.a(eth_mac_set_address_max_lib.o)
 .mdebug.abi32  0xa0000434        0x0 c:/program files/microchip/xc32/v1.31/bin/../lib/gcc/pic32mx/4.5.2/../../../../pic32mx/lib\libmchp_peripheral_32MX795F512L.a(eth_rx_buffers_append_lib.o)
 .mdebug.abi32  0xa0000434        0x0 c:/program files/microchip/xc32/v1.31/bin/../lib/gcc/pic32mx/4.5.2/../../../../pic32mx/lib\libmchp_peripheral_32MX795F512L.a(eth_rx_filters_lib.o)
 .mdebug.abi32  0xa0000434        0x0 c:/program files/microchip/xc32/v1.31/bin/../lib/gcc/pic32mx/4.5.2/../../../../pic32mx/lib\libmchp_peripheral_32MX795F512L.a(eth_rx_get_packet_lib.o)
 .mdebug.abi32  0xa0000434        0x0 c:/program files/microchip/xc32/v1.31/bin/../lib/gcc/pic32mx/4.5.2/../../../../pic32mx/lib\libmchp_peripheral_32MX795F512L.a(eth_rx_set_buffer_size_lib.o)
 .mdebug.abi32  0xa0000434        0x0 c:/program files/microchip/xc32/v1.31/bin/../lib/gcc/pic32mx/4.5.2/../../../../pic32mx/lib\libmchp_peripheral_32MX795F512L.a(eth_tx_packet_lib.o)
 .mdebug.abi32  0xa0000434        0x0 c:/program files/microchip/xc32/v1.31/bin/../lib/gcc/pic32mx/4.5.2/../../../../pic32mx/lib\libmchp_peripheral_32MX795F512L.a(_eth_append_busy_list_lib.o)
 .mdebug.abi32  0xa0000434        0x0 c:/program files/microchip/xc32/v1.31/bin/../lib/gcc/pic32mx/4.5.2/../../../../pic32mx/lib\libmchp_peripheral_32MX795F512L.a(eth_miim_access.o)
 .mdebug.abi32  0xa0000434        0x0 c:/program files/microchip/xc32/v1.31/bin/../lib/gcc/pic32mx/4.5.2/../../../../pic32mx/lib\libmchp_peripheral_32MX795F512L.a(soft_reset_lib.o)
 .mdebug.abi32  0xa0000434        0x0 c:/program files/microchip/xc32/v1.31/bin/../lib/gcc/pic32mx/4.5.2/../../../../pic32mx/lib\libmchp_peripheral_32MX795F512L.a(pcache.o)
 .mdebug.abi32  0xa0000434        0x0 c:/program files/microchip/xc32/v1.31/bin/../lib/gcc/pic32mx/4.5.2/../../../../pic32mx/lib\libmchp_peripheral_32MX795F512L.a(int_disable_interrupts_lib.o)
 .mdebug.abi32  0xa0000434        0x0 c:/program files/microchip/xc32/v1.31/bin/../lib/gcc/pic32mx/4.5.2/../../../../pic32mx/lib\libmchp_peripheral_32MX795F512L.a(int_restore_interrupts_lib.o)
 .mdebug.abi32  0xa0000434        0x0 c:/program files/microchip/xc32/v1.31/bin/../lib/gcc/pic32mx/4.5.2/../../../../pic32mx/lib\libmchp_peripheral_32MX795F512L.a(int_enable_mv_int_lib.o)
 .mdebug.abi32  0xa0000434        0x0 c:/program files/microchip/xc32/v1.31/bin/../lib/gcc/pic32mx/4.5.2/../../../../pic32mx/lib\libmchp_peripheral_32MX795F512L.a(int_tbl_lib.o)
 .mdebug.abi32  0xa0000434        0x0 c:/program files/microchip/xc32/v1.31/bin/../lib/gcc/pic32mx/4.5.2/../../../../pic32mx/lib\libmchp_peripheral_32MX795F512L.a(port_set_pins_digital_in_lib.o)
 .mdebug.abi32  0xa0000434        0x0 c:/program files/microchip/xc32/v1.31/bin/../lib/gcc/pic32mx/4.5.2/../../../../pic32mx/lib\libmchp_peripheral_32MX795F512L.a(port_set_pins_digital_out_lib.o)
 .mdebug.abi32  0xa0000434        0x0 c:/program files/microchip/xc32/v1.31/bin/../lib/gcc/pic32mx/4.5.2/../../../../pic32mx/lib\libmchp_peripheral_32MX795F512L.a(_ports_tbl_libp.o)
 .mdebug.abi32  0xa0000434        0x0 c:/program files/microchip/xc32/v1.31/bin/../lib/gcc/pic32mx/4.5.2/../../../../pic32mx/lib\libmchp_peripheral_32MX795F512L.a(int_enable_interrupts_lib.o)
 .mdebug.abi32  0xa0000434        0x0 c:/program files/microchip/xc32/v1.31/bin/../lib/gcc/pic32mx/4.5.2\libgcc.a(_udivdi3.o)
 .mdebug.abi32  0xa0000434        0x0 c:/program files/microchip/xc32/v1.31/bin/../lib/gcc/pic32mx/4.5.2\libgcc.a(_umoddi3.o)
 .mdebug.abi32  0xa0000434        0x0 c:/program files/microchip/xc32/v1.31/bin/../lib/gcc/pic32mx/4.5.2/../../../../pic32mx/lib\libpic32.a(default-bootstrap-exception-handler.o)
 .mdebug.abi32  0xa0000434        0x0 c:/program files/microchip/xc32/v1.31/bin/../lib/gcc/pic32mx/4.5.2/../../../../pic32mx/lib\libpic32.a(default-on-reset.o)
 .mdebug.abi32  0xa0000434        0x0 c:/program files/microchip/xc32/v1.31/bin/../lib/gcc/pic32mx/4.5.2/../../../../pic32mx/lib\libpic32.a(default-on-bootstrap.o)
 .mdebug.abi32  0xa0000434        0x0 c:/program files/microchip/xc32/v1.31/bin/../lib/gcc/pic32mx/4.5.2/../../../../pic32mx/lib\libpic32.a(defaultinterrupt.o)
 .mdebug.abi32  0xa0000434        0x0 c:/program files/microchip/xc32/v1.31/bin/../lib/gcc/pic32mx/4.5.2/../../../../pic32mx/lib\libc.a(atol.o)
 .mdebug.abi32  0xa0000434        0x0 c:/program files/microchip/xc32/v1.31/bin/../lib/gcc/pic32mx/4.5.2/../../../../pic32mx/lib\libc.a(calloc.o)
 .mdebug.abi32  0xa0000434        0x0 c:/program files/microchip/xc32/v1.31/bin/../lib/gcc/pic32mx/4.5.2/../../../../pic32mx/lib\libc.a(ctype.o)
 .mdebug.abi32  0xa0000434        0x0 c:/program files/microchip/xc32/v1.31/bin/../lib/gcc/pic32mx/4.5.2/../../../../pic32mx/lib\libc.a(malloc.o)
 .mdebug.abi32  0xa0000434        0x0 c:/program files/microchip/xc32/v1.31/bin/../lib/gcc/pic32mx/4.5.2/../../../../pic32mx/lib\libc.a(strncpy.o)
 .mdebug.abi32  0xa0000434        0x0 c:/program files/microchip/xc32/v1.31/bin/../lib/gcc/pic32mx/4.5.2/../../../../pic32mx/lib\libpic32.a(sbrk.o)
 .mdebug.abi32  0xa0000434        0x0 c:/program files/microchip/xc32/v1.31/bin/../lib/gcc/pic32mx/4.5.2/../../../../pic32mx/lib\libpic32.a(errno.o)

.mdebug.abiN32
 *(.mdebug.abiN32)

.mdebug.abi64
 *(.mdebug.abi64)

.mdebug.abiO64
 *(.mdebug.abiO64)

.mdebug.eabi32
 *(.mdebug.eabi32)

.mdebug.eabi64
 *(.mdebug.eabi64)

.gcc_compiled_long32
 *(.gcc_compiled_long32)

.gcc_compiled_long64
 *(.gcc_compiled_long64)

.stab
 *(.stab)

.stabstr
 *(.stabstr)

.stab.excl
 *(.stab.excl)

.stab.exclstr
 *(.stab.exclstr)

.stab.index
 *(.stab.index)

.stab.indexstr
 *(.stab.indexstr)

.comment        0x00000000      0x1eb
 *(.comment)
 .comment       0x00000000       0x3c build/XC32-PIC32_ETH_SK_ETH795/production/_ext/1840844407/ARCFOUR.o
                                 0x3d (size before relaxing)
 .comment       0x00000000       0x3d build/XC32-PIC32_ETH_SK_ETH795/production/_ext/1840844407/ARP.o
 .comment       0x00000000       0x3d build/XC32-PIC32_ETH_SK_ETH795/production/_ext/1840844407/AutoIP.o
 .comment       0x00000000       0x3d build/XC32-PIC32_ETH_SK_ETH795/production/_ext/1840844407/BigInt.o
 .comment       0x00000000       0x3d build/XC32-PIC32_ETH_SK_ETH795/production/_ext/1840844407/DHCP.o
 .comment       0x00000000       0x3d build/XC32-PIC32_ETH_SK_ETH795/production/_ext/1840844407/DHCPs.o
 .comment       0x00000000       0x3d build/XC32-PIC32_ETH_SK_ETH795/production/_ext/1840844407/DNS.o
 .comment       0x00000000       0x3d build/XC32-PIC32_ETH_SK_ETH795/production/_ext/1840844407/DNSs.o
 .comment       0x00000000       0x3d build/XC32-PIC32_ETH_SK_ETH795/production/_ext/1840844407/Delay.o
 .comment       0x00000000       0x3d build/XC32-PIC32_ETH_SK_ETH795/production/_ext/1840844407/DynDNS.o
 .comment       0x00000000       0x3d build/XC32-PIC32_ETH_SK_ETH795/production/_ext/1840844407/ETHPIC32ExtPhy.o
 .comment       0x00000000       0x3d build/XC32-PIC32_ETH_SK_ETH795/production/_ext/1840844407/ETHPIC32ExtPhyDP83848.o
 .comment       0x00000000       0x3d build/XC32-PIC32_ETH_SK_ETH795/production/_ext/1840844407/ETHPIC32IntMac.o
 .comment       0x00000000       0x3d build/XC32-PIC32_ETH_SK_ETH795/production/_ext/1840844407/FileSystem.o
 .comment       0x00000000       0x3d build/XC32-PIC32_ETH_SK_ETH795/production/_ext/1840844407/HTTP2.o
 .comment       0x00000000       0x3d build/XC32-PIC32_ETH_SK_ETH795/production/_ext/1840844407/Hashes.o
 .comment       0x00000000       0x3d build/XC32-PIC32_ETH_SK_ETH795/production/_ext/1840844407/Helpers.o
 .comment       0x00000000       0x3d build/XC32-PIC32_ETH_SK_ETH795/production/_ext/1840844407/ICMP.o
 .comment       0x00000000       0x3d build/XC32-PIC32_ETH_SK_ETH795/production/_ext/1840844407/IP.o
 .comment       0x00000000       0x3d build/XC32-PIC32_ETH_SK_ETH795/production/_ext/1840844407/MPFS2.o
 .comment       0x00000000       0x3d build/XC32-PIC32_ETH_SK_ETH795/production/_ext/1472/MPFSImg2.o
 .comment       0x00000000       0x3d build/XC32-PIC32_ETH_SK_ETH795/production/_ext/1840844407/NBNS.o
 .comment       0x00000000       0x3d build/XC32-PIC32_ETH_SK_ETH795/production/_ext/1840844407/Random.o
 .comment       0x00000000       0x3d build/XC32-PIC32_ETH_SK_ETH795/production/_ext/1840844407/Reboot.o
 .comment       0x00000000       0x3d build/XC32-PIC32_ETH_SK_ETH795/production/_ext/1840844407/StackTsk.o
 .comment       0x00000000       0x3d build/XC32-PIC32_ETH_SK_ETH795/production/_ext/1840844407/TCP.o
 .comment       0x00000000       0x3d build/XC32-PIC32_ETH_SK_ETH795/production/_ext/1840844407/Telnet.o
 .comment       0x00000000       0x3d build/XC32-PIC32_ETH_SK_ETH795/production/_ext/1840844407/Tick.o
 .comment       0x00000000       0x3d build/XC32-PIC32_ETH_SK_ETH795/production/_ext/1840844407/UART.o
 .comment       0x00000000       0x3d build/XC32-PIC32_ETH_SK_ETH795/production/_ext/1840844407/UDP.o
 .comment       0x00000000       0x3d build/XC32-PIC32_ETH_SK_ETH795/production/_ext/1360937237/Main.o
 .comment       0x00000000       0x3d build/XC32-PIC32_ETH_SK_ETH795/production/_ext/1360937237/dmx.o
 .comment       0x00000000       0x3d build/XC32-PIC32_ETH_SK_ETH795/production/_ext/1360937237/gva_dmx.o
 .comment       0x00000000       0x3d build/XC32-PIC32_ETH_SK_ETH795/production/_ext/1360937237/Ping.o
 .comment       0x00000000       0x3d build/XC32-PIC32_ETH_SK_ETH795/production/_ext/1360937237/HTTPApp.o
 .comment       0x00000000       0x3d build/XC32-PIC32_ETH_SK_ETH795/production/_ext/1360937237/artnet.o
 .comment       0x0000003c       0x3c c:/program files/microchip/xc32/v1.31/bin/../lib/gcc/pic32mx/4.5.2/../../../../pic32mx/lib\libmchp_peripheral.a(read_core_timer_lib.o)
                                 0x3d (size before relaxing)
 .comment       0x00000000       0x3d c:/program files/microchip/xc32/v1.31/bin/../lib/gcc/pic32mx/4.5.2/../../../../pic32mx/lib\libmchp_peripheral_32MX795F512L.a(eth_ack_packet_lib.o)
 .comment       0x00000000       0x3d c:/program files/microchip/xc32/v1.31/bin/../lib/gcc/pic32mx/4.5.2/../../../../pic32mx/lib\libmchp_peripheral_32MX795F512L.a(eth_descriptors_add_lib.o)
 .comment       0x00000000       0x3d c:/program files/microchip/xc32/v1.31/bin/../lib/gcc/pic32mx/4.5.2/../../../../pic32mx/lib\libmchp_peripheral_32MX795F512L.a(eth_init_lib.o)
 .comment       0x00000000       0x3d c:/program files/microchip/xc32/v1.31/bin/../lib/gcc/pic32mx/4.5.2/../../../../pic32mx/lib\libmchp_peripheral_32MX795F512L.a(eth_mac_open_lib.o)
 .comment       0x00000000       0x3d c:/program files/microchip/xc32/v1.31/bin/../lib/gcc/pic32mx/4.5.2/../../../../pic32mx/lib\libmchp_peripheral_32MX795F512L.a(eth_mac_set_address_max_lib.o)
 .comment       0x00000000       0x3d c:/program files/microchip/xc32/v1.31/bin/../lib/gcc/pic32mx/4.5.2/../../../../pic32mx/lib\libmchp_peripheral_32MX795F512L.a(eth_rx_buffers_append_lib.o)
 .comment       0x00000000       0x3d c:/program files/microchip/xc32/v1.31/bin/../lib/gcc/pic32mx/4.5.2/../../../../pic32mx/lib\libmchp_peripheral_32MX795F512L.a(eth_rx_filters_lib.o)
 .comment       0x00000000       0x3d c:/program files/microchip/xc32/v1.31/bin/../lib/gcc/pic32mx/4.5.2/../../../../pic32mx/lib\libmchp_peripheral_32MX795F512L.a(eth_rx_get_packet_lib.o)
 .comment       0x00000000       0x3d c:/program files/microchip/xc32/v1.31/bin/../lib/gcc/pic32mx/4.5.2/../../../../pic32mx/lib\libmchp_peripheral_32MX795F512L.a(eth_rx_set_buffer_size_lib.o)
 .comment       0x00000000       0x3d c:/program files/microchip/xc32/v1.31/bin/../lib/gcc/pic32mx/4.5.2/../../../../pic32mx/lib\libmchp_peripheral_32MX795F512L.a(eth_tx_packet_lib.o)
 .comment       0x00000000       0x3d c:/program files/microchip/xc32/v1.31/bin/../lib/gcc/pic32mx/4.5.2/../../../../pic32mx/lib\libmchp_peripheral_32MX795F512L.a(_eth_append_busy_list_lib.o)
 .comment       0x00000000       0x3d c:/program files/microchip/xc32/v1.31/bin/../lib/gcc/pic32mx/4.5.2/../../../../pic32mx/lib\libmchp_peripheral_32MX795F512L.a(eth_miim_access.o)
 .comment       0x00000000       0x3d c:/program files/microchip/xc32/v1.31/bin/../lib/gcc/pic32mx/4.5.2/../../../../pic32mx/lib\libmchp_peripheral_32MX795F512L.a(soft_reset_lib.o)
 .comment       0x00000000       0x3d c:/program files/microchip/xc32/v1.31/bin/../lib/gcc/pic32mx/4.5.2/../../../../pic32mx/lib\libmchp_peripheral_32MX795F512L.a(pcache.o)
 .comment       0x00000000       0x3d c:/program files/microchip/xc32/v1.31/bin/../lib/gcc/pic32mx/4.5.2/../../../../pic32mx/lib\libmchp_peripheral_32MX795F512L.a(int_disable_interrupts_lib.o)
 .comment       0x00000000       0x3d c:/program files/microchip/xc32/v1.31/bin/../lib/gcc/pic32mx/4.5.2/../../../../pic32mx/lib\libmchp_peripheral_32MX795F512L.a(int_restore_interrupts_lib.o)
 .comment       0x00000000       0x3d c:/program files/microchip/xc32/v1.31/bin/../lib/gcc/pic32mx/4.5.2/../../../../pic32mx/lib\libmchp_peripheral_32MX795F512L.a(int_enable_mv_int_lib.o)
 .comment       0x00000000       0x3d c:/program files/microchip/xc32/v1.31/bin/../lib/gcc/pic32mx/4.5.2/../../../../pic32mx/lib\libmchp_peripheral_32MX795F512L.a(int_tbl_lib.o)
 .comment       0x00000000       0x3d c:/program files/microchip/xc32/v1.31/bin/../lib/gcc/pic32mx/4.5.2/../../../../pic32mx/lib\libmchp_peripheral_32MX795F512L.a(port_set_pins_digital_in_lib.o)
 .comment       0x00000000       0x3d c:/program files/microchip/xc32/v1.31/bin/../lib/gcc/pic32mx/4.5.2/../../../../pic32mx/lib\libmchp_peripheral_32MX795F512L.a(port_set_pins_digital_out_lib.o)
 .comment       0x00000000       0x3d c:/program files/microchip/xc32/v1.31/bin/../lib/gcc/pic32mx/4.5.2/../../../../pic32mx/lib\libmchp_peripheral_32MX795F512L.a(_ports_tbl_libp.o)
 .comment       0x00000000       0x3d c:/program files/microchip/xc32/v1.31/bin/../lib/gcc/pic32mx/4.5.2/../../../../pic32mx/lib\libmchp_peripheral_32MX795F512L.a(int_enable_interrupts_lib.o)
 .comment       0x00000078       0x3c c:/program files/microchip/xc32/v1.31/bin/../lib/gcc/pic32mx/4.5.2\libgcc.a(_udivdi3.o)
                                 0x3d (size before relaxing)
 .comment       0x00000000       0x3d c:/program files/microchip/xc32/v1.31/bin/../lib/gcc/pic32mx/4.5.2\libgcc.a(_umoddi3.o)
 .comment       0x000000b4       0x18 c:/program files/microchip/xc32/v1.31/bin/../lib/gcc/pic32mx/4.5.2/../../../../pic32mx/lib\libpic32.a(memcmp.o)
                                 0x19 (size before relaxing)
 .comment       0x000000cc       0x18 c:/program files/microchip/xc32/v1.31/bin/../lib/gcc/pic32mx/4.5.2/../../../../pic32mx/lib\libpic32.a(memset.o)
                                 0x19 (size before relaxing)
 .comment       0x000000e4       0x55 c:/program files/microchip/xc32/v1.31/bin/../lib/gcc/pic32mx/4.5.2/../../../../pic32mx/lib\libpic32.a(strcmp.o)
                                 0x56 (size before relaxing)
 .comment       0x00000139       0x19 c:/program files/microchip/xc32/v1.31/bin/../lib/gcc/pic32mx/4.5.2/../../../../pic32mx/lib\libpic32.a(strlen.o)
                                 0x1a (size before relaxing)
 .comment       0x00000000       0x3d c:/program files/microchip/xc32/v1.31/bin/../lib/gcc/pic32mx/4.5.2/../../../../pic32mx/lib\libpic32.a(default-bootstrap-exception-handler.o)
 .comment       0x00000000       0x3d c:/program files/microchip/xc32/v1.31/bin/../lib/gcc/pic32mx/4.5.2/../../../../pic32mx/lib\libpic32.a(default-on-reset.o)
 .comment       0x00000000       0x3d c:/program files/microchip/xc32/v1.31/bin/../lib/gcc/pic32mx/4.5.2/../../../../pic32mx/lib\libpic32.a(default-on-bootstrap.o)
 .comment       0x00000000       0x3d c:/program files/microchip/xc32/v1.31/bin/../lib/gcc/pic32mx/4.5.2/../../../../pic32mx/lib\libpic32.a(defaultinterrupt.o)
 .comment       0x00000000       0x3d c:/program files/microchip/xc32/v1.31/bin/../lib/gcc/pic32mx/4.5.2/../../../../pic32mx/lib\libc.a(atol.o)
 .comment       0x00000000       0x3d c:/program files/microchip/xc32/v1.31/bin/../lib/gcc/pic32mx/4.5.2/../../../../pic32mx/lib\libc.a(calloc.o)
 .comment       0x00000152       0x4e c:/program files/microchip/xc32/v1.31/bin/../lib/gcc/pic32mx/4.5.2/../../../../pic32mx/lib\libc.a(ctype.o)
                                 0x8b (size before relaxing)
 .comment       0x00000000       0x3d c:/program files/microchip/xc32/v1.31/bin/../lib/gcc/pic32mx/4.5.2/../../../../pic32mx/lib\libc.a(malloc.o)
 .comment       0x00000000       0x3d c:/program files/microchip/xc32/v1.31/bin/../lib/gcc/pic32mx/4.5.2/../../../../pic32mx/lib\libc.a(strncpy.o)
 .comment       0x000001a0       0x4b c:/program files/microchip/xc32/v1.31/bin/../lib/gcc/pic32mx/4.5.2/../../../../pic32mx/lib\libpic32.a(sbrk.o)
                                 0x88 (size before relaxing)
 .comment       0x00000000       0x3d c:/program files/microchip/xc32/v1.31/bin/../lib/gcc/pic32mx/4.5.2/../../../../pic32mx/lib\libpic32.a(errno.o)

.debug
 *(.debug)

.line
 *(.line)

.debug_srcinfo
 *(.debug_srcinfo)

.debug_sfnames
 *(.debug_sfnames)

.debug_aranges  0x00000000      0x878
 *(.debug_aranges)
 .debug_aranges
                0x00000000       0x20 build/XC32-PIC32_ETH_SK_ETH795/production/_ext/1840844407/ARP.o
 .debug_aranges
                0x00000020       0x20 build/XC32-PIC32_ETH_SK_ETH795/production/_ext/1840844407/DHCP.o
 .debug_aranges
                0x00000040       0x20 build/XC32-PIC32_ETH_SK_ETH795/production/_ext/1840844407/DHCPs.o
 .debug_aranges
                0x00000060       0x20 build/XC32-PIC32_ETH_SK_ETH795/production/_ext/1840844407/DNS.o
 .debug_aranges
                0x00000080       0x20 build/XC32-PIC32_ETH_SK_ETH795/production/_ext/1840844407/Delay.o
 .debug_aranges
                0x000000a0       0x20 build/XC32-PIC32_ETH_SK_ETH795/production/_ext/1840844407/DynDNS.o
 .debug_aranges
                0x000000c0       0x20 build/XC32-PIC32_ETH_SK_ETH795/production/_ext/1840844407/ETHPIC32ExtPhy.o
 .debug_aranges
                0x000000e0       0x20 build/XC32-PIC32_ETH_SK_ETH795/production/_ext/1840844407/ETHPIC32ExtPhyDP83848.o
 .debug_aranges
                0x00000100       0x20 build/XC32-PIC32_ETH_SK_ETH795/production/_ext/1840844407/ETHPIC32IntMac.o
 .debug_aranges
                0x00000120       0x20 build/XC32-PIC32_ETH_SK_ETH795/production/_ext/1840844407/HTTP2.o
 .debug_aranges
                0x00000140       0x20 build/XC32-PIC32_ETH_SK_ETH795/production/_ext/1840844407/Hashes.o
 .debug_aranges
                0x00000160       0x20 build/XC32-PIC32_ETH_SK_ETH795/production/_ext/1840844407/Helpers.o
 .debug_aranges
                0x00000180       0x20 build/XC32-PIC32_ETH_SK_ETH795/production/_ext/1840844407/ICMP.o
 .debug_aranges
                0x000001a0       0x20 build/XC32-PIC32_ETH_SK_ETH795/production/_ext/1840844407/IP.o
 .debug_aranges
                0x000001c0       0x20 build/XC32-PIC32_ETH_SK_ETH795/production/_ext/1840844407/MPFS2.o
 .debug_aranges
                0x000001e0       0x20 build/XC32-PIC32_ETH_SK_ETH795/production/_ext/1840844407/NBNS.o
 .debug_aranges
                0x00000200       0x20 build/XC32-PIC32_ETH_SK_ETH795/production/_ext/1840844407/Reboot.o
 .debug_aranges
                0x00000220       0x20 build/XC32-PIC32_ETH_SK_ETH795/production/_ext/1840844407/StackTsk.o
 .debug_aranges
                0x00000240       0x20 build/XC32-PIC32_ETH_SK_ETH795/production/_ext/1840844407/TCP.o
 .debug_aranges
                0x00000260       0x20 build/XC32-PIC32_ETH_SK_ETH795/production/_ext/1840844407/Tick.o
 .debug_aranges
                0x00000280       0x20 build/XC32-PIC32_ETH_SK_ETH795/production/_ext/1840844407/UDP.o
 .debug_aranges
                0x000002a0       0x20 build/XC32-PIC32_ETH_SK_ETH795/production/_ext/1360937237/Main.o
 .debug_aranges
                0x000002c0       0x20 build/XC32-PIC32_ETH_SK_ETH795/production/_ext/1360937237/Ping.o
 .debug_aranges
                0x000002e0       0x20 build/XC32-PIC32_ETH_SK_ETH795/production/_ext/1360937237/HTTPApp.o
 .debug_aranges
                0x00000300       0x20 build/XC32-PIC32_ETH_SK_ETH795/production/_ext/1360937237/artnet.o
 .debug_aranges
                0x00000320       0x20 c:/program files/microchip/xc32/v1.31/bin/../lib/gcc/pic32mx/4.5.2/../../../../pic32mx/lib\libmchp_peripheral.a(read_core_timer_lib.o)
 .debug_aranges
                0x00000340       0x48 c:/program files/microchip/xc32/v1.31/bin/../lib/gcc/pic32mx/4.5.2/../../../../pic32mx/lib\libmchp_peripheral_32MX795F512L.a(eth_ack_packet_lib.o)
 .debug_aranges
                0x00000388       0x28 c:/program files/microchip/xc32/v1.31/bin/../lib/gcc/pic32mx/4.5.2/../../../../pic32mx/lib\libmchp_peripheral_32MX795F512L.a(eth_descriptors_add_lib.o)
 .debug_aranges
                0x000003b0       0x20 c:/program files/microchip/xc32/v1.31/bin/../lib/gcc/pic32mx/4.5.2/../../../../pic32mx/lib\libmchp_peripheral_32MX795F512L.a(eth_init_lib.o)
 .debug_aranges
                0x000003d0       0x20 c:/program files/microchip/xc32/v1.31/bin/../lib/gcc/pic32mx/4.5.2/../../../../pic32mx/lib\libmchp_peripheral_32MX795F512L.a(eth_mac_open_lib.o)
 .debug_aranges
                0x000003f0       0x30 c:/program files/microchip/xc32/v1.31/bin/../lib/gcc/pic32mx/4.5.2/../../../../pic32mx/lib\libmchp_peripheral_32MX795F512L.a(eth_mac_set_address_max_lib.o)
 .debug_aranges
                0x00000420       0x20 c:/program files/microchip/xc32/v1.31/bin/../lib/gcc/pic32mx/4.5.2/../../../../pic32mx/lib\libmchp_peripheral_32MX795F512L.a(eth_rx_buffers_append_lib.o)
 .debug_aranges
                0x00000440       0x48 c:/program files/microchip/xc32/v1.31/bin/../lib/gcc/pic32mx/4.5.2/../../../../pic32mx/lib\libmchp_peripheral_32MX795F512L.a(eth_rx_filters_lib.o)
 .debug_aranges
                0x00000488       0x28 c:/program files/microchip/xc32/v1.31/bin/../lib/gcc/pic32mx/4.5.2/../../../../pic32mx/lib\libmchp_peripheral_32MX795F512L.a(eth_rx_get_packet_lib.o)
 .debug_aranges
                0x000004b0       0x20 c:/program files/microchip/xc32/v1.31/bin/../lib/gcc/pic32mx/4.5.2/../../../../pic32mx/lib\libmchp_peripheral_32MX795F512L.a(eth_rx_set_buffer_size_lib.o)
 .debug_aranges
                0x000004d0       0x48 c:/program files/microchip/xc32/v1.31/bin/../lib/gcc/pic32mx/4.5.2/../../../../pic32mx/lib\libmchp_peripheral_32MX795F512L.a(eth_tx_packet_lib.o)
 .debug_aranges
                0x00000518       0x20 c:/program files/microchip/xc32/v1.31/bin/../lib/gcc/pic32mx/4.5.2/../../../../pic32mx/lib\libmchp_peripheral_32MX795F512L.a(_eth_append_busy_list_lib.o)
 .debug_aranges
                0x00000538       0x48 c:/program files/microchip/xc32/v1.31/bin/../lib/gcc/pic32mx/4.5.2/../../../../pic32mx/lib\libmchp_peripheral_32MX795F512L.a(eth_miim_access.o)
 .debug_aranges
                0x00000580       0x20 c:/program files/microchip/xc32/v1.31/bin/../lib/gcc/pic32mx/4.5.2/../../../../pic32mx/lib\libmchp_peripheral_32MX795F512L.a(soft_reset_lib.o)
 .debug_aranges
                0x000005a0       0x28 c:/program files/microchip/xc32/v1.31/bin/../lib/gcc/pic32mx/4.5.2/../../../../pic32mx/lib\libmchp_peripheral_32MX795F512L.a(pcache.o)
 .debug_aranges
                0x000005c8       0x20 c:/program files/microchip/xc32/v1.31/bin/../lib/gcc/pic32mx/4.5.2/../../../../pic32mx/lib\libmchp_peripheral_32MX795F512L.a(int_disable_interrupts_lib.o)
 .debug_aranges
                0x000005e8       0x20 c:/program files/microchip/xc32/v1.31/bin/../lib/gcc/pic32mx/4.5.2/../../../../pic32mx/lib\libmchp_peripheral_32MX795F512L.a(int_restore_interrupts_lib.o)
 .debug_aranges
                0x00000608       0x20 c:/program files/microchip/xc32/v1.31/bin/../lib/gcc/pic32mx/4.5.2/../../../../pic32mx/lib\libmchp_peripheral_32MX795F512L.a(int_enable_mv_int_lib.o)
 .debug_aranges
                0x00000628       0x60 c:/program files/microchip/xc32/v1.31/bin/../lib/gcc/pic32mx/4.5.2/../../../../pic32mx/lib\libmchp_peripheral_32MX795F512L.a(int_tbl_lib.o)
 .debug_aranges
                0x00000688       0x20 c:/program files/microchip/xc32/v1.31/bin/../lib/gcc/pic32mx/4.5.2/../../../../pic32mx/lib\libmchp_peripheral_32MX795F512L.a(port_set_pins_digital_in_lib.o)
 .debug_aranges
                0x000006a8       0x20 c:/program files/microchip/xc32/v1.31/bin/../lib/gcc/pic32mx/4.5.2/../../../../pic32mx/lib\libmchp_peripheral_32MX795F512L.a(port_set_pins_digital_out_lib.o)
 .debug_aranges
                0x000006c8       0x20 c:/program files/microchip/xc32/v1.31/bin/../lib/gcc/pic32mx/4.5.2/../../../../pic32mx/lib\libmchp_peripheral_32MX795F512L.a(int_enable_interrupts_lib.o)
 .debug_aranges
                0x000006e8       0x20 c:/program files/microchip/xc32/v1.31/bin/../lib/gcc/pic32mx/4.5.2\libgcc.a(_udivdi3.o)
 .debug_aranges
                0x00000708       0x20 c:/program files/microchip/xc32/v1.31/bin/../lib/gcc/pic32mx/4.5.2\libgcc.a(_umoddi3.o)
 .debug_aranges
                0x00000728       0x20 c:/program files/microchip/xc32/v1.31/bin/../lib/gcc/pic32mx/4.5.2/../../../../pic32mx/lib\libpic32.a(default-bootstrap-exception-handler.o)
 .debug_aranges
                0x00000748       0x20 c:/program files/microchip/xc32/v1.31/bin/../lib/gcc/pic32mx/4.5.2/../../../../pic32mx/lib\libpic32.a(default-on-reset.o)
 .debug_aranges
                0x00000768       0x20 c:/program files/microchip/xc32/v1.31/bin/../lib/gcc/pic32mx/4.5.2/../../../../pic32mx/lib\libpic32.a(default-on-bootstrap.o)
 .debug_aranges
                0x00000788       0x20 c:/program files/microchip/xc32/v1.31/bin/../lib/gcc/pic32mx/4.5.2/../../../../pic32mx/lib\libpic32.a(defaultinterrupt.o)
 .debug_aranges
                0x000007a8       0x20 c:/program files/microchip/xc32/v1.31/bin/../lib/gcc/pic32mx/4.5.2/../../../../pic32mx/lib\libc.a(atol.o)
 .debug_aranges
                0x000007c8       0x20 c:/program files/microchip/xc32/v1.31/bin/../lib/gcc/pic32mx/4.5.2/../../../../pic32mx/lib\libc.a(calloc.o)
 .debug_aranges
                0x000007e8       0x30 c:/program files/microchip/xc32/v1.31/bin/../lib/gcc/pic32mx/4.5.2/../../../../pic32mx/lib\libc.a(malloc.o)
 .debug_aranges
                0x00000818       0x20 c:/program files/microchip/xc32/v1.31/bin/../lib/gcc/pic32mx/4.5.2/../../../../pic32mx/lib\libc.a(strncpy.o)
 .debug_aranges
                0x00000838       0x40 c:/program files/microchip/xc32/v1.31/bin/../lib/gcc/pic32mx/4.5.2/../../../../pic32mx/lib\libpic32.a(sbrk.o)

.debug_pubnames
                0x00000000     0x1b0d
 *(.debug_pubnames)
 .debug_pubnames
                0x00000000       0x6f build/XC32-PIC32_ETH_SK_ETH795/production/_ext/1840844407/ARP.o
 .debug_pubnames
                0x0000006f       0xcc build/XC32-PIC32_ETH_SK_ETH795/production/_ext/1840844407/DHCP.o
 .debug_pubnames
                0x0000013b       0x78 build/XC32-PIC32_ETH_SK_ETH795/production/_ext/1840844407/DHCPs.o
 .debug_pubnames
                0x000001b3       0x55 build/XC32-PIC32_ETH_SK_ETH795/production/_ext/1840844407/DNS.o
 .debug_pubnames
                0x00000208       0x2c build/XC32-PIC32_ETH_SK_ETH795/production/_ext/1840844407/Delay.o
 .debug_pubnames
                0x00000234       0x9f build/XC32-PIC32_ETH_SK_ETH795/production/_ext/1840844407/DynDNS.o
 .debug_pubnames
                0x000002d3      0x110 build/XC32-PIC32_ETH_SK_ETH795/production/_ext/1840844407/ETHPIC32ExtPhy.o
 .debug_pubnames
                0x000003e3       0x6b build/XC32-PIC32_ETH_SK_ETH795/production/_ext/1840844407/ETHPIC32ExtPhyDP83848.o
 .debug_pubnames
                0x0000044e      0x213 build/XC32-PIC32_ETH_SK_ETH795/production/_ext/1840844407/ETHPIC32IntMac.o
 .debug_pubnames
                0x00000661       0xcf build/XC32-PIC32_ETH_SK_ETH795/production/_ext/1840844407/HTTP2.o
 .debug_pubnames
                0x00000730       0x62 build/XC32-PIC32_ETH_SK_ETH795/production/_ext/1840844407/Hashes.o
 .debug_pubnames
                0x00000792      0x12c build/XC32-PIC32_ETH_SK_ETH795/production/_ext/1840844407/Helpers.o
 .debug_pubnames
                0x000008be       0x7f build/XC32-PIC32_ETH_SK_ETH795/production/_ext/1840844407/ICMP.o
 .debug_pubnames
                0x0000093d       0x44 build/XC32-PIC32_ETH_SK_ETH795/production/_ext/1840844407/IP.o
 .debug_pubnames
                0x00000981      0x140 build/XC32-PIC32_ETH_SK_ETH795/production/_ext/1840844407/MPFS2.o
 .debug_pubnames
                0x00000ac1       0x21 build/XC32-PIC32_ETH_SK_ETH795/production/_ext/1472/MPFSImg2.o
 .debug_pubnames
                0x00000ae2       0x1f build/XC32-PIC32_ETH_SK_ETH795/production/_ext/1840844407/NBNS.o
 .debug_pubnames
                0x00000b01       0x21 build/XC32-PIC32_ETH_SK_ETH795/production/_ext/1840844407/Reboot.o
 .debug_pubnames
                0x00000b22       0x53 build/XC32-PIC32_ETH_SK_ETH795/production/_ext/1840844407/StackTsk.o
 .debug_pubnames
                0x00000b75      0x1ba build/XC32-PIC32_ETH_SK_ETH795/production/_ext/1840844407/TCP.o
 .debug_pubnames
                0x00000d2f       0x7e build/XC32-PIC32_ETH_SK_ETH795/production/_ext/1840844407/Tick.o
 .debug_pubnames
                0x00000dad      0x155 build/XC32-PIC32_ETH_SK_ETH795/production/_ext/1840844407/UDP.o
 .debug_pubnames
                0x00000f02       0x56 build/XC32-PIC32_ETH_SK_ETH795/production/_ext/1360937237/Main.o
 .debug_pubnames
                0x00000f58       0x20 build/XC32-PIC32_ETH_SK_ETH795/production/_ext/1360937237/Ping.o
 .debug_pubnames
                0x00000f78      0x3bd build/XC32-PIC32_ETH_SK_ETH795/production/_ext/1360937237/HTTPApp.o
 .debug_pubnames
                0x00001335       0x31 build/XC32-PIC32_ETH_SK_ETH795/production/_ext/1360937237/artnet.o
 .debug_pubnames
                0x00001366       0x24 c:/program files/microchip/xc32/v1.31/bin/../lib/gcc/pic32mx/4.5.2/../../../../pic32mx/lib\libmchp_peripheral.a(read_core_timer_lib.o)
 .debug_pubnames
                0x0000138a       0x80 c:/program files/microchip/xc32/v1.31/bin/../lib/gcc/pic32mx/4.5.2/../../../../pic32mx/lib\libmchp_peripheral_32MX795F512L.a(eth_ack_packet_lib.o)
 .debug_pubnames
                0x0000140a       0x42 c:/program files/microchip/xc32/v1.31/bin/../lib/gcc/pic32mx/4.5.2/../../../../pic32mx/lib\libmchp_peripheral_32MX795F512L.a(eth_descriptors_add_lib.o)
 .debug_pubnames
                0x0000144c       0x1e c:/program files/microchip/xc32/v1.31/bin/../lib/gcc/pic32mx/4.5.2/../../../../pic32mx/lib\libmchp_peripheral_32MX795F512L.a(eth_init_lib.o)
 .debug_pubnames
                0x0000146a       0x21 c:/program files/microchip/xc32/v1.31/bin/../lib/gcc/pic32mx/4.5.2/../../../../pic32mx/lib\libmchp_peripheral_32MX795F512L.a(eth_mac_open_lib.o)
 .debug_pubnames
                0x0000148b       0x52 c:/program files/microchip/xc32/v1.31/bin/../lib/gcc/pic32mx/4.5.2/../../../../pic32mx/lib\libmchp_peripheral_32MX795F512L.a(eth_mac_set_address_max_lib.o)
 .debug_pubnames
                0x000014dd       0x29 c:/program files/microchip/xc32/v1.31/bin/../lib/gcc/pic32mx/4.5.2/../../../../pic32mx/lib\libmchp_peripheral_32MX795F512L.a(eth_rx_buffers_append_lib.o)
 .debug_pubnames
                0x00001506       0x92 c:/program files/microchip/xc32/v1.31/bin/../lib/gcc/pic32mx/4.5.2/../../../../pic32mx/lib\libmchp_peripheral_32MX795F512L.a(eth_rx_filters_lib.o)
 .debug_pubnames
                0x00001598       0x38 c:/program files/microchip/xc32/v1.31/bin/../lib/gcc/pic32mx/4.5.2/../../../../pic32mx/lib\libmchp_peripheral_32MX795F512L.a(eth_rx_get_packet_lib.o)
 .debug_pubnames
                0x000015d0       0x29 c:/program files/microchip/xc32/v1.31/bin/../lib/gcc/pic32mx/4.5.2/../../../../pic32mx/lib\libmchp_peripheral_32MX795F512L.a(eth_rx_set_buffer_size_lib.o)
 .debug_pubnames
                0x000015f9       0x66 c:/program files/microchip/xc32/v1.31/bin/../lib/gcc/pic32mx/4.5.2/../../../../pic32mx/lib\libmchp_peripheral_32MX795F512L.a(eth_tx_packet_lib.o)
 .debug_pubnames
                0x0000165f       0x29 c:/program files/microchip/xc32/v1.31/bin/../lib/gcc/pic32mx/4.5.2/../../../../pic32mx/lib\libmchp_peripheral_32MX795F512L.a(_eth_append_busy_list_lib.o)
 .debug_pubnames
                0x00001688       0x90 c:/program files/microchip/xc32/v1.31/bin/../lib/gcc/pic32mx/4.5.2/../../../../pic32mx/lib\libmchp_peripheral_32MX795F512L.a(eth_miim_access.o)
 .debug_pubnames
                0x00001718       0x20 c:/program files/microchip/xc32/v1.31/bin/../lib/gcc/pic32mx/4.5.2/../../../../pic32mx/lib\libmchp_peripheral_32MX795F512L.a(soft_reset_lib.o)
 .debug_pubnames
                0x00001738       0x3b c:/program files/microchip/xc32/v1.31/bin/../lib/gcc/pic32mx/4.5.2/../../../../pic32mx/lib\libmchp_peripheral_32MX795F512L.a(pcache.o)
 .debug_pubnames
                0x00001773       0x2b c:/program files/microchip/xc32/v1.31/bin/../lib/gcc/pic32mx/4.5.2/../../../../pic32mx/lib\libmchp_peripheral_32MX795F512L.a(int_disable_interrupts_lib.o)
 .debug_pubnames
                0x0000179e       0x2b c:/program files/microchip/xc32/v1.31/bin/../lib/gcc/pic32mx/4.5.2/../../../../pic32mx/lib\libmchp_peripheral_32MX795F512L.a(int_restore_interrupts_lib.o)
 .debug_pubnames
                0x000017c9       0x36 c:/program files/microchip/xc32/v1.31/bin/../lib/gcc/pic32mx/4.5.2/../../../../pic32mx/lib\libmchp_peripheral_32MX795F512L.a(int_enable_mv_int_lib.o)
 .debug_pubnames
                0x000017ff       0xca c:/program files/microchip/xc32/v1.31/bin/../lib/gcc/pic32mx/4.5.2/../../../../pic32mx/lib\libmchp_peripheral_32MX795F512L.a(int_tbl_lib.o)
 .debug_pubnames
                0x000018c9       0x2b c:/program files/microchip/xc32/v1.31/bin/../lib/gcc/pic32mx/4.5.2/../../../../pic32mx/lib\libmchp_peripheral_32MX795F512L.a(port_set_pins_digital_in_lib.o)
 .debug_pubnames
                0x000018f4       0x2c c:/program files/microchip/xc32/v1.31/bin/../lib/gcc/pic32mx/4.5.2/../../../../pic32mx/lib\libmchp_peripheral_32MX795F512L.a(port_set_pins_digital_out_lib.o)
 .debug_pubnames
                0x00001920       0x2a c:/program files/microchip/xc32/v1.31/bin/../lib/gcc/pic32mx/4.5.2/../../../../pic32mx/lib\libmchp_peripheral_32MX795F512L.a(int_enable_interrupts_lib.o)
 .debug_pubnames
                0x0000194a       0x20 c:/program files/microchip/xc32/v1.31/bin/../lib/gcc/pic32mx/4.5.2\libgcc.a(_udivdi3.o)
 .debug_pubnames
                0x0000196a       0x20 c:/program files/microchip/xc32/v1.31/bin/../lib/gcc/pic32mx/4.5.2\libgcc.a(_umoddi3.o)
 .debug_pubnames
                0x0000198a       0x33 c:/program files/microchip/xc32/v1.31/bin/../lib/gcc/pic32mx/4.5.2/../../../../pic32mx/lib\libpic32.a(default-bootstrap-exception-handler.o)
 .debug_pubnames
                0x000019bd       0x20 c:/program files/microchip/xc32/v1.31/bin/../lib/gcc/pic32mx/4.5.2/../../../../pic32mx/lib\libpic32.a(default-on-reset.o)
 .debug_pubnames
                0x000019dd       0x24 c:/program files/microchip/xc32/v1.31/bin/../lib/gcc/pic32mx/4.5.2/../../../../pic32mx/lib\libpic32.a(default-on-bootstrap.o)
 .debug_pubnames
                0x00001a01       0x28 c:/program files/microchip/xc32/v1.31/bin/../lib/gcc/pic32mx/4.5.2/../../../../pic32mx/lib\libpic32.a(defaultinterrupt.o)
 .debug_pubnames
                0x00001a29       0x1b c:/program files/microchip/xc32/v1.31/bin/../lib/gcc/pic32mx/4.5.2/../../../../pic32mx/lib\libc.a(atol.o)
 .debug_pubnames
                0x00001a44       0x1d c:/program files/microchip/xc32/v1.31/bin/../lib/gcc/pic32mx/4.5.2/../../../../pic32mx/lib\libc.a(calloc.o)
 .debug_pubnames
                0x00001a61       0x32 c:/program files/microchip/xc32/v1.31/bin/../lib/gcc/pic32mx/4.5.2/../../../../pic32mx/lib\libc.a(malloc.o)
 .debug_pubnames
                0x00001a93       0x1e c:/program files/microchip/xc32/v1.31/bin/../lib/gcc/pic32mx/4.5.2/../../../../pic32mx/lib\libc.a(strncpy.o)
 .debug_pubnames
                0x00001ab1       0x5c c:/program files/microchip/xc32/v1.31/bin/../lib/gcc/pic32mx/4.5.2/../../../../pic32mx/lib\libpic32.a(sbrk.o)

.debug_info     0x00000000    0x3d669
 *(.debug_info .gnu.linkonce.wi.*)
 .debug_info    0x00000000     0x113f build/XC32-PIC32_ETH_SK_ETH795/production/_ext/1840844407/ARCFOUR.o
 .debug_info    0x0000113f     0x1b68 build/XC32-PIC32_ETH_SK_ETH795/production/_ext/1840844407/ARP.o
 .debug_info    0x00002ca7     0x113e build/XC32-PIC32_ETH_SK_ETH795/production/_ext/1840844407/AutoIP.o
 .debug_info    0x00003de5     0x113e build/XC32-PIC32_ETH_SK_ETH795/production/_ext/1840844407/BigInt.o
 .debug_info    0x00004f23     0x2126 build/XC32-PIC32_ETH_SK_ETH795/production/_ext/1840844407/DHCP.o
 .debug_info    0x00007049     0x22a3 build/XC32-PIC32_ETH_SK_ETH795/production/_ext/1840844407/DHCPs.o
 .debug_info    0x000092ec     0x1d89 build/XC32-PIC32_ETH_SK_ETH795/production/_ext/1840844407/DNS.o
 .debug_info    0x0000b075     0x113c build/XC32-PIC32_ETH_SK_ETH795/production/_ext/1840844407/DNSs.o
 .debug_info    0x0000c1b1     0x11d2 build/XC32-PIC32_ETH_SK_ETH795/production/_ext/1840844407/Delay.o
 .debug_info    0x0000d383     0x1f1e build/XC32-PIC32_ETH_SK_ETH795/production/_ext/1840844407/DynDNS.o
 .debug_info    0x0000f2a1     0x26b9 build/XC32-PIC32_ETH_SK_ETH795/production/_ext/1840844407/ETHPIC32ExtPhy.o
 .debug_info    0x0001195a     0x1681 build/XC32-PIC32_ETH_SK_ETH795/production/_ext/1840844407/ETHPIC32ExtPhyDP83848.o
 .debug_info    0x00012fdb     0x2cf1 build/XC32-PIC32_ETH_SK_ETH795/production/_ext/1840844407/ETHPIC32IntMac.o
 .debug_info    0x00015ccc     0x1142 build/XC32-PIC32_ETH_SK_ETH795/production/_ext/1840844407/FileSystem.o
 .debug_info    0x00016e0e     0x2320 build/XC32-PIC32_ETH_SK_ETH795/production/_ext/1840844407/HTTP2.o
 .debug_info    0x0001912e     0x150e build/XC32-PIC32_ETH_SK_ETH795/production/_ext/1840844407/Hashes.o
 .debug_info    0x0001a63c     0x25c5 build/XC32-PIC32_ETH_SK_ETH795/production/_ext/1840844407/Helpers.o
 .debug_info    0x0001cc01     0x1acd build/XC32-PIC32_ETH_SK_ETH795/production/_ext/1840844407/ICMP.o
 .debug_info    0x0001e6ce     0x1b1a build/XC32-PIC32_ETH_SK_ETH795/production/_ext/1840844407/IP.o
 .debug_info    0x000201e8     0x18f4 build/XC32-PIC32_ETH_SK_ETH795/production/_ext/1840844407/MPFS2.o
 .debug_info    0x00021adc     0x115e build/XC32-PIC32_ETH_SK_ETH795/production/_ext/1472/MPFSImg2.o
 .debug_info    0x00022c3a     0x1c6e build/XC32-PIC32_ETH_SK_ETH795/production/_ext/1840844407/NBNS.o
 .debug_info    0x000248a8     0x113e build/XC32-PIC32_ETH_SK_ETH795/production/_ext/1840844407/Random.o
 .debug_info    0x000259e6     0x1a35 build/XC32-PIC32_ETH_SK_ETH795/production/_ext/1840844407/Reboot.o
 .debug_info    0x0002741b     0x1a29 build/XC32-PIC32_ETH_SK_ETH795/production/_ext/1840844407/StackTsk.o
 .debug_info    0x00028e44     0x31e7 build/XC32-PIC32_ETH_SK_ETH795/production/_ext/1840844407/TCP.o
 .debug_info    0x0002c02b     0x113e build/XC32-PIC32_ETH_SK_ETH795/production/_ext/1840844407/Telnet.o
 .debug_info    0x0002d169     0x1c8f build/XC32-PIC32_ETH_SK_ETH795/production/_ext/1840844407/Tick.o
 .debug_info    0x0002edf8     0x113c build/XC32-PIC32_ETH_SK_ETH795/production/_ext/1840844407/UART.o
 .debug_info    0x0002ff34     0x21e9 build/XC32-PIC32_ETH_SK_ETH795/production/_ext/1840844407/UDP.o
 .debug_info    0x0003211d     0x240f build/XC32-PIC32_ETH_SK_ETH795/production/_ext/1360937237/Main.o
 .debug_info    0x0003452c        0x0 build/XC32-PIC32_ETH_SK_ETH795/production/_ext/1360937237/dmx.o
 .debug_info    0x0003452c        0x0 build/XC32-PIC32_ETH_SK_ETH795/production/_ext/1360937237/gva_dmx.o
 .debug_info    0x0003452c     0x137a build/XC32-PIC32_ETH_SK_ETH795/production/_ext/1360937237/Ping.o
 .debug_info    0x000358a6     0x2e85 build/XC32-PIC32_ETH_SK_ETH795/production/_ext/1360937237/HTTPApp.o
 .debug_info    0x0003872b     0x252f build/XC32-PIC32_ETH_SK_ETH795/production/_ext/1360937237/artnet.o
 .debug_info    0x0003ac5a       0xaa c:/program files/microchip/xc32/v1.31/bin/../lib/gcc/pic32mx/4.5.2/../../../../pic32mx/lib\libmchp_peripheral.a(read_core_timer_lib.o)
 .debug_info    0x0003ad04      0x16b c:/program files/microchip/xc32/v1.31/bin/../lib/gcc/pic32mx/4.5.2/../../../../pic32mx/lib\libmchp_peripheral_32MX795F512L.a(eth_ack_packet_lib.o)
 .debug_info    0x0003ae6f       0xf2 c:/program files/microchip/xc32/v1.31/bin/../lib/gcc/pic32mx/4.5.2/../../../../pic32mx/lib\libmchp_peripheral_32MX795F512L.a(eth_descriptors_add_lib.o)
 .debug_info    0x0003af61       0xbe c:/program files/microchip/xc32/v1.31/bin/../lib/gcc/pic32mx/4.5.2/../../../../pic32mx/lib\libmchp_peripheral_32MX795F512L.a(eth_init_lib.o)
 .debug_info    0x0003b01f       0xa2 c:/program files/microchip/xc32/v1.31/bin/../lib/gcc/pic32mx/4.5.2/../../../../pic32mx/lib\libmchp_peripheral_32MX795F512L.a(eth_mac_open_lib.o)
 .debug_info    0x0003b0c1       0xf2 c:/program files/microchip/xc32/v1.31/bin/../lib/gcc/pic32mx/4.5.2/../../../../pic32mx/lib\libmchp_peripheral_32MX795F512L.a(eth_mac_set_address_max_lib.o)
 .debug_info    0x0003b1b3       0xe6 c:/program files/microchip/xc32/v1.31/bin/../lib/gcc/pic32mx/4.5.2/../../../../pic32mx/lib\libmchp_peripheral_32MX795F512L.a(eth_rx_buffers_append_lib.o)
 .debug_info    0x0003b299      0x147 c:/program files/microchip/xc32/v1.31/bin/../lib/gcc/pic32mx/4.5.2/../../../../pic32mx/lib\libmchp_peripheral_32MX795F512L.a(eth_rx_filters_lib.o)
 .debug_info    0x0003b3e0       0xc8 c:/program files/microchip/xc32/v1.31/bin/../lib/gcc/pic32mx/4.5.2/../../../../pic32mx/lib\libmchp_peripheral_32MX795F512L.a(eth_rx_get_packet_lib.o)
 .debug_info    0x0003b4a8       0xb4 c:/program files/microchip/xc32/v1.31/bin/../lib/gcc/pic32mx/4.5.2/../../../../pic32mx/lib\libmchp_peripheral_32MX795F512L.a(eth_rx_set_buffer_size_lib.o)
 .debug_info    0x0003b55c      0x17c c:/program files/microchip/xc32/v1.31/bin/../lib/gcc/pic32mx/4.5.2/../../../../pic32mx/lib\libmchp_peripheral_32MX795F512L.a(eth_tx_packet_lib.o)
 .debug_info    0x0003b6d8       0xd4 c:/program files/microchip/xc32/v1.31/bin/../lib/gcc/pic32mx/4.5.2/../../../../pic32mx/lib\libmchp_peripheral_32MX795F512L.a(_eth_append_busy_list_lib.o)
 .debug_info    0x0003b7ac      0x143 c:/program files/microchip/xc32/v1.31/bin/../lib/gcc/pic32mx/4.5.2/../../../../pic32mx/lib\libmchp_peripheral_32MX795F512L.a(eth_miim_access.o)
 .debug_info    0x0003b8ef       0xb2 c:/program files/microchip/xc32/v1.31/bin/../lib/gcc/pic32mx/4.5.2/../../../../pic32mx/lib\libmchp_peripheral_32MX795F512L.a(soft_reset_lib.o)
 .debug_info    0x0003b9a1       0xbf c:/program files/microchip/xc32/v1.31/bin/../lib/gcc/pic32mx/4.5.2/../../../../pic32mx/lib\libmchp_peripheral_32MX795F512L.a(pcache.o)
 .debug_info    0x0003ba60       0xb6 c:/program files/microchip/xc32/v1.31/bin/../lib/gcc/pic32mx/4.5.2/../../../../pic32mx/lib\libmchp_peripheral_32MX795F512L.a(int_disable_interrupts_lib.o)
 .debug_info    0x0003bb16       0xb6 c:/program files/microchip/xc32/v1.31/bin/../lib/gcc/pic32mx/4.5.2/../../../../pic32mx/lib\libmchp_peripheral_32MX795F512L.a(int_restore_interrupts_lib.o)
 .debug_info    0x0003bbcc       0xbc c:/program files/microchip/xc32/v1.31/bin/../lib/gcc/pic32mx/4.5.2/../../../../pic32mx/lib\libmchp_peripheral_32MX795F512L.a(int_enable_mv_int_lib.o)
 .debug_info    0x0003bc88      0x196 c:/program files/microchip/xc32/v1.31/bin/../lib/gcc/pic32mx/4.5.2/../../../../pic32mx/lib\libmchp_peripheral_32MX795F512L.a(int_tbl_lib.o)
 .debug_info    0x0003be1e       0xba c:/program files/microchip/xc32/v1.31/bin/../lib/gcc/pic32mx/4.5.2/../../../../pic32mx/lib\libmchp_peripheral_32MX795F512L.a(port_set_pins_digital_in_lib.o)
 .debug_info    0x0003bed8       0xbc c:/program files/microchip/xc32/v1.31/bin/../lib/gcc/pic32mx/4.5.2/../../../../pic32mx/lib\libmchp_peripheral_32MX795F512L.a(port_set_pins_digital_out_lib.o)
 .debug_info    0x0003bf94        0x0 c:/program files/microchip/xc32/v1.31/bin/../lib/gcc/pic32mx/4.5.2/../../../../pic32mx/lib\libmchp_peripheral_32MX795F512L.a(_ports_tbl_libp.o)
 .debug_info    0x0003bf94       0xb4 c:/program files/microchip/xc32/v1.31/bin/../lib/gcc/pic32mx/4.5.2/../../../../pic32mx/lib\libmchp_peripheral_32MX795F512L.a(int_enable_interrupts_lib.o)
 .debug_info    0x0003c048      0x75f c:/program files/microchip/xc32/v1.31/bin/../lib/gcc/pic32mx/4.5.2\libgcc.a(_udivdi3.o)
 .debug_info    0x0003c7a7      0x798 c:/program files/microchip/xc32/v1.31/bin/../lib/gcc/pic32mx/4.5.2\libgcc.a(_umoddi3.o)
 .debug_info    0x0003cf3f       0xde c:/program files/microchip/xc32/v1.31/bin/../lib/gcc/pic32mx/4.5.2/../../../../pic32mx/lib\libpic32.a(default-bootstrap-exception-handler.o)
 .debug_info    0x0003d01d       0xb8 c:/program files/microchip/xc32/v1.31/bin/../lib/gcc/pic32mx/4.5.2/../../../../pic32mx/lib\libpic32.a(default-on-reset.o)
 .debug_info    0x0003d0d5       0xc0 c:/program files/microchip/xc32/v1.31/bin/../lib/gcc/pic32mx/4.5.2/../../../../pic32mx/lib\libpic32.a(default-on-bootstrap.o)
 .debug_info    0x0003d195       0xd2 c:/program files/microchip/xc32/v1.31/bin/../lib/gcc/pic32mx/4.5.2/../../../../pic32mx/lib\libpic32.a(defaultinterrupt.o)
 .debug_info    0x0003d267       0xad c:/program files/microchip/xc32/v1.31/bin/../lib/gcc/pic32mx/4.5.2/../../../../pic32mx/lib\libc.a(atol.o)
 .debug_info    0x0003d314       0xb1 c:/program files/microchip/xc32/v1.31/bin/../lib/gcc/pic32mx/4.5.2/../../../../pic32mx/lib\libc.a(calloc.o)
 .debug_info    0x0003d3c5        0x0 c:/program files/microchip/xc32/v1.31/bin/../lib/gcc/pic32mx/4.5.2/../../../../pic32mx/lib\libc.a(ctype.o)
 .debug_info    0x0003d3c5       0xe0 c:/program files/microchip/xc32/v1.31/bin/../lib/gcc/pic32mx/4.5.2/../../../../pic32mx/lib\libc.a(malloc.o)
 .debug_info    0x0003d4a5       0xb3 c:/program files/microchip/xc32/v1.31/bin/../lib/gcc/pic32mx/4.5.2/../../../../pic32mx/lib\libc.a(strncpy.o)
 .debug_info    0x0003d558      0x111 c:/program files/microchip/xc32/v1.31/bin/../lib/gcc/pic32mx/4.5.2/../../../../pic32mx/lib\libpic32.a(sbrk.o)
 .debug_info    0x0003d669        0x0 c:/program files/microchip/xc32/v1.31/bin/../lib/gcc/pic32mx/4.5.2/../../../../pic32mx/lib\libpic32.a(errno.o)

.debug_abbrev   0x00000000     0x5199
 *(.debug_abbrev)
 .debug_abbrev  0x00000000      0x164 build/XC32-PIC32_ETH_SK_ETH795/production/_ext/1840844407/ARCFOUR.o
 .debug_abbrev  0x00000164      0x273 build/XC32-PIC32_ETH_SK_ETH795/production/_ext/1840844407/ARP.o
 .debug_abbrev  0x000003d7      0x164 build/XC32-PIC32_ETH_SK_ETH795/production/_ext/1840844407/AutoIP.o
 .debug_abbrev  0x0000053b      0x164 build/XC32-PIC32_ETH_SK_ETH795/production/_ext/1840844407/BigInt.o
 .debug_abbrev  0x0000069f      0x2bb build/XC32-PIC32_ETH_SK_ETH795/production/_ext/1840844407/DHCP.o
 .debug_abbrev  0x0000095a      0x292 build/XC32-PIC32_ETH_SK_ETH795/production/_ext/1840844407/DHCPs.o
 .debug_abbrev  0x00000bec      0x26f build/XC32-PIC32_ETH_SK_ETH795/production/_ext/1840844407/DNS.o
 .debug_abbrev  0x00000e5b      0x164 build/XC32-PIC32_ETH_SK_ETH795/production/_ext/1840844407/DNSs.o
 .debug_abbrev  0x00000fbf      0x199 build/XC32-PIC32_ETH_SK_ETH795/production/_ext/1840844407/Delay.o
 .debug_abbrev  0x00001158      0x27d build/XC32-PIC32_ETH_SK_ETH795/production/_ext/1840844407/DynDNS.o
 .debug_abbrev  0x000013d5      0x32f build/XC32-PIC32_ETH_SK_ETH795/production/_ext/1840844407/ETHPIC32ExtPhy.o
 .debug_abbrev  0x00001704      0x1c8 build/XC32-PIC32_ETH_SK_ETH795/production/_ext/1840844407/ETHPIC32ExtPhyDP83848.o
 .debug_abbrev  0x000018cc      0x330 build/XC32-PIC32_ETH_SK_ETH795/production/_ext/1840844407/ETHPIC32IntMac.o
 .debug_abbrev  0x00001bfc      0x164 build/XC32-PIC32_ETH_SK_ETH795/production/_ext/1840844407/FileSystem.o
 .debug_abbrev  0x00001d60      0x2cc build/XC32-PIC32_ETH_SK_ETH795/production/_ext/1840844407/HTTP2.o
 .debug_abbrev  0x0000202c      0x231 build/XC32-PIC32_ETH_SK_ETH795/production/_ext/1840844407/Hashes.o
 .debug_abbrev  0x0000225d      0x259 build/XC32-PIC32_ETH_SK_ETH795/production/_ext/1840844407/Helpers.o
 .debug_abbrev  0x000024b6      0x244 build/XC32-PIC32_ETH_SK_ETH795/production/_ext/1840844407/ICMP.o
 .debug_abbrev  0x000026fa      0x240 build/XC32-PIC32_ETH_SK_ETH795/production/_ext/1840844407/IP.o
 .debug_abbrev  0x0000293a      0x28c build/XC32-PIC32_ETH_SK_ETH795/production/_ext/1840844407/MPFS2.o
 .debug_abbrev  0x00002bc6      0x180 build/XC32-PIC32_ETH_SK_ETH795/production/_ext/1472/MPFSImg2.o
 .debug_abbrev  0x00002d46      0x245 build/XC32-PIC32_ETH_SK_ETH795/production/_ext/1840844407/NBNS.o
 .debug_abbrev  0x00002f8b      0x164 build/XC32-PIC32_ETH_SK_ETH795/production/_ext/1840844407/Random.o
 .debug_abbrev  0x000030ef      0x1be build/XC32-PIC32_ETH_SK_ETH795/production/_ext/1840844407/Reboot.o
 .debug_abbrev  0x000032ad      0x221 build/XC32-PIC32_ETH_SK_ETH795/production/_ext/1840844407/StackTsk.o
 .debug_abbrev  0x000034ce      0x2c5 build/XC32-PIC32_ETH_SK_ETH795/production/_ext/1840844407/TCP.o
 .debug_abbrev  0x00003793      0x164 build/XC32-PIC32_ETH_SK_ETH795/production/_ext/1840844407/Telnet.o
 .debug_abbrev  0x000038f7      0x217 build/XC32-PIC32_ETH_SK_ETH795/production/_ext/1840844407/Tick.o
 .debug_abbrev  0x00003b0e      0x164 build/XC32-PIC32_ETH_SK_ETH795/production/_ext/1840844407/UART.o
 .debug_abbrev  0x00003c72      0x2f3 build/XC32-PIC32_ETH_SK_ETH795/production/_ext/1840844407/UDP.o
 .debug_abbrev  0x00003f65      0x324 build/XC32-PIC32_ETH_SK_ETH795/production/_ext/1360937237/Main.o
 .debug_abbrev  0x00004289        0x1 build/XC32-PIC32_ETH_SK_ETH795/production/_ext/1360937237/dmx.o
 .debug_abbrev  0x0000428a        0x1 build/XC32-PIC32_ETH_SK_ETH795/production/_ext/1360937237/gva_dmx.o
 .debug_abbrev  0x0000428b      0x1a2 build/XC32-PIC32_ETH_SK_ETH795/production/_ext/1360937237/Ping.o
 .debug_abbrev  0x0000442d      0x2e6 build/XC32-PIC32_ETH_SK_ETH795/production/_ext/1360937237/HTTPApp.o
 .debug_abbrev  0x00004713      0x2a4 build/XC32-PIC32_ETH_SK_ETH795/production/_ext/1360937237/artnet.o
 .debug_abbrev  0x000049b7       0x25 c:/program files/microchip/xc32/v1.31/bin/../lib/gcc/pic32mx/4.5.2/../../../../pic32mx/lib\libmchp_peripheral.a(read_core_timer_lib.o)
 .debug_abbrev  0x000049dc       0x58 c:/program files/microchip/xc32/v1.31/bin/../lib/gcc/pic32mx/4.5.2/../../../../pic32mx/lib\libmchp_peripheral_32MX795F512L.a(eth_ack_packet_lib.o)
 .debug_abbrev  0x00004a34       0x34 c:/program files/microchip/xc32/v1.31/bin/../lib/gcc/pic32mx/4.5.2/../../../../pic32mx/lib\libmchp_peripheral_32MX795F512L.a(eth_descriptors_add_lib.o)
 .debug_abbrev  0x00004a68       0x34 c:/program files/microchip/xc32/v1.31/bin/../lib/gcc/pic32mx/4.5.2/../../../../pic32mx/lib\libmchp_peripheral_32MX795F512L.a(eth_init_lib.o)
 .debug_abbrev  0x00004a9c       0x25 c:/program files/microchip/xc32/v1.31/bin/../lib/gcc/pic32mx/4.5.2/../../../../pic32mx/lib\libmchp_peripheral_32MX795F512L.a(eth_mac_open_lib.o)
 .debug_abbrev  0x00004ac1       0x25 c:/program files/microchip/xc32/v1.31/bin/../lib/gcc/pic32mx/4.5.2/../../../../pic32mx/lib\libmchp_peripheral_32MX795F512L.a(eth_mac_set_address_max_lib.o)
 .debug_abbrev  0x00004ae6       0x34 c:/program files/microchip/xc32/v1.31/bin/../lib/gcc/pic32mx/4.5.2/../../../../pic32mx/lib\libmchp_peripheral_32MX795F512L.a(eth_rx_buffers_append_lib.o)
 .debug_abbrev  0x00004b1a       0x25 c:/program files/microchip/xc32/v1.31/bin/../lib/gcc/pic32mx/4.5.2/../../../../pic32mx/lib\libmchp_peripheral_32MX795F512L.a(eth_rx_filters_lib.o)
 .debug_abbrev  0x00004b3f       0x25 c:/program files/microchip/xc32/v1.31/bin/../lib/gcc/pic32mx/4.5.2/../../../../pic32mx/lib\libmchp_peripheral_32MX795F512L.a(eth_rx_get_packet_lib.o)
 .debug_abbrev  0x00004b64       0x25 c:/program files/microchip/xc32/v1.31/bin/../lib/gcc/pic32mx/4.5.2/../../../../pic32mx/lib\libmchp_peripheral_32MX795F512L.a(eth_rx_set_buffer_size_lib.o)
 .debug_abbrev  0x00004b89       0x61 c:/program files/microchip/xc32/v1.31/bin/../lib/gcc/pic32mx/4.5.2/../../../../pic32mx/lib\libmchp_peripheral_32MX795F512L.a(eth_tx_packet_lib.o)
 .debug_abbrev  0x00004bea       0x34 c:/program files/microchip/xc32/v1.31/bin/../lib/gcc/pic32mx/4.5.2/../../../../pic32mx/lib\libmchp_peripheral_32MX795F512L.a(_eth_append_busy_list_lib.o)
 .debug_abbrev  0x00004c1e       0x38 c:/program files/microchip/xc32/v1.31/bin/../lib/gcc/pic32mx/4.5.2/../../../../pic32mx/lib\libmchp_peripheral_32MX795F512L.a(eth_miim_access.o)
 .debug_abbrev  0x00004c56       0x34 c:/program files/microchip/xc32/v1.31/bin/../lib/gcc/pic32mx/4.5.2/../../../../pic32mx/lib\libmchp_peripheral_32MX795F512L.a(soft_reset_lib.o)
 .debug_abbrev  0x00004c8a       0x25 c:/program files/microchip/xc32/v1.31/bin/../lib/gcc/pic32mx/4.5.2/../../../../pic32mx/lib\libmchp_peripheral_32MX795F512L.a(pcache.o)
 .debug_abbrev  0x00004caf       0x25 c:/program files/microchip/xc32/v1.31/bin/../lib/gcc/pic32mx/4.5.2/../../../../pic32mx/lib\libmchp_peripheral_32MX795F512L.a(int_disable_interrupts_lib.o)
 .debug_abbrev  0x00004cd4       0x25 c:/program files/microchip/xc32/v1.31/bin/../lib/gcc/pic32mx/4.5.2/../../../../pic32mx/lib\libmchp_peripheral_32MX795F512L.a(int_restore_interrupts_lib.o)
 .debug_abbrev  0x00004cf9       0x25 c:/program files/microchip/xc32/v1.31/bin/../lib/gcc/pic32mx/4.5.2/../../../../pic32mx/lib\libmchp_peripheral_32MX795F512L.a(int_enable_mv_int_lib.o)
 .debug_abbrev  0x00004d1e       0x25 c:/program files/microchip/xc32/v1.31/bin/../lib/gcc/pic32mx/4.5.2/../../../../pic32mx/lib\libmchp_peripheral_32MX795F512L.a(int_tbl_lib.o)
 .debug_abbrev  0x00004d43       0x25 c:/program files/microchip/xc32/v1.31/bin/../lib/gcc/pic32mx/4.5.2/../../../../pic32mx/lib\libmchp_peripheral_32MX795F512L.a(port_set_pins_digital_in_lib.o)
 .debug_abbrev  0x00004d68       0x25 c:/program files/microchip/xc32/v1.31/bin/../lib/gcc/pic32mx/4.5.2/../../../../pic32mx/lib\libmchp_peripheral_32MX795F512L.a(port_set_pins_digital_out_lib.o)
 .debug_abbrev  0x00004d8d        0x1 c:/program files/microchip/xc32/v1.31/bin/../lib/gcc/pic32mx/4.5.2/../../../../pic32mx/lib\libmchp_peripheral_32MX795F512L.a(_ports_tbl_libp.o)
 .debug_abbrev  0x00004d8e       0x25 c:/program files/microchip/xc32/v1.31/bin/../lib/gcc/pic32mx/4.5.2/../../../../pic32mx/lib\libmchp_peripheral_32MX795F512L.a(int_enable_interrupts_lib.o)
 .debug_abbrev  0x00004db3      0x132 c:/program files/microchip/xc32/v1.31/bin/../lib/gcc/pic32mx/4.5.2\libgcc.a(_udivdi3.o)
 .debug_abbrev  0x00004ee5      0x148 c:/program files/microchip/xc32/v1.31/bin/../lib/gcc/pic32mx/4.5.2\libgcc.a(_umoddi3.o)
 .debug_abbrev  0x0000502d       0x23 c:/program files/microchip/xc32/v1.31/bin/../lib/gcc/pic32mx/4.5.2/../../../../pic32mx/lib\libpic32.a(default-bootstrap-exception-handler.o)
 .debug_abbrev  0x00005050       0x23 c:/program files/microchip/xc32/v1.31/bin/../lib/gcc/pic32mx/4.5.2/../../../../pic32mx/lib\libpic32.a(default-on-reset.o)
 .debug_abbrev  0x00005073       0x23 c:/program files/microchip/xc32/v1.31/bin/../lib/gcc/pic32mx/4.5.2/../../../../pic32mx/lib\libpic32.a(default-on-bootstrap.o)
 .debug_abbrev  0x00005096       0x23 c:/program files/microchip/xc32/v1.31/bin/../lib/gcc/pic32mx/4.5.2/../../../../pic32mx/lib\libpic32.a(defaultinterrupt.o)
 .debug_abbrev  0x000050b9       0x23 c:/program files/microchip/xc32/v1.31/bin/../lib/gcc/pic32mx/4.5.2/../../../../pic32mx/lib\libc.a(atol.o)
 .debug_abbrev  0x000050dc       0x23 c:/program files/microchip/xc32/v1.31/bin/../lib/gcc/pic32mx/4.5.2/../../../../pic32mx/lib\libc.a(calloc.o)
 .debug_abbrev  0x000050ff        0x1 c:/program files/microchip/xc32/v1.31/bin/../lib/gcc/pic32mx/4.5.2/../../../../pic32mx/lib\libc.a(ctype.o)
 .debug_abbrev  0x00005100       0x3f c:/program files/microchip/xc32/v1.31/bin/../lib/gcc/pic32mx/4.5.2/../../../../pic32mx/lib\libc.a(malloc.o)
 .debug_abbrev  0x0000513f       0x23 c:/program files/microchip/xc32/v1.31/bin/../lib/gcc/pic32mx/4.5.2/../../../../pic32mx/lib\libc.a(strncpy.o)
 .debug_abbrev  0x00005162       0x36 c:/program files/microchip/xc32/v1.31/bin/../lib/gcc/pic32mx/4.5.2/../../../../pic32mx/lib\libpic32.a(sbrk.o)
 .debug_abbrev  0x00005198        0x1 c:/program files/microchip/xc32/v1.31/bin/../lib/gcc/pic32mx/4.5.2/../../../../pic32mx/lib\libpic32.a(errno.o)

.debug_line     0x00000000     0x6d3e
 *(.debug_line)
 .debug_line    0x00000000      0x100 build/XC32-PIC32_ETH_SK_ETH795/production/_ext/1840844407/ARCFOUR.o
 .debug_line    0x00000100      0x241 build/XC32-PIC32_ETH_SK_ETH795/production/_ext/1840844407/ARP.o
 .debug_line    0x00000341      0x100 build/XC32-PIC32_ETH_SK_ETH795/production/_ext/1840844407/AutoIP.o
 .debug_line    0x00000441      0x100 build/XC32-PIC32_ETH_SK_ETH795/production/_ext/1840844407/BigInt.o
 .debug_line    0x00000541      0x406 build/XC32-PIC32_ETH_SK_ETH795/production/_ext/1840844407/DHCP.o
 .debug_line    0x00000947      0x3e9 build/XC32-PIC32_ETH_SK_ETH795/production/_ext/1840844407/DHCPs.o
 .debug_line    0x00000d30      0x31c build/XC32-PIC32_ETH_SK_ETH795/production/_ext/1840844407/DNS.o
 .debug_line    0x0000104c      0x100 build/XC32-PIC32_ETH_SK_ETH795/production/_ext/1840844407/DNSs.o
 .debug_line    0x0000114c      0x167 build/XC32-PIC32_ETH_SK_ETH795/production/_ext/1840844407/Delay.o
 .debug_line    0x000012b3      0x3c5 build/XC32-PIC32_ETH_SK_ETH795/production/_ext/1840844407/DynDNS.o
 .debug_line    0x00001678      0x405 build/XC32-PIC32_ETH_SK_ETH795/production/_ext/1840844407/ETHPIC32ExtPhy.o
 .debug_line    0x00001a7d      0x209 build/XC32-PIC32_ETH_SK_ETH795/production/_ext/1840844407/ETHPIC32ExtPhyDP83848.o
 .debug_line    0x00001c86      0x3a3 build/XC32-PIC32_ETH_SK_ETH795/production/_ext/1840844407/ETHPIC32IntMac.o
 .debug_line    0x00002029      0x100 build/XC32-PIC32_ETH_SK_ETH795/production/_ext/1840844407/FileSystem.o
 .debug_line    0x00002129      0x660 build/XC32-PIC32_ETH_SK_ETH795/production/_ext/1840844407/HTTP2.o
 .debug_line    0x00002789      0x240 build/XC32-PIC32_ETH_SK_ETH795/production/_ext/1840844407/Hashes.o
 .debug_line    0x000029c9      0x3d5 build/XC32-PIC32_ETH_SK_ETH795/production/_ext/1840844407/Helpers.o
 .debug_line    0x00002d9e      0x241 build/XC32-PIC32_ETH_SK_ETH795/production/_ext/1840844407/ICMP.o
 .debug_line    0x00002fdf      0x1f4 build/XC32-PIC32_ETH_SK_ETH795/production/_ext/1840844407/IP.o
 .debug_line    0x000031d3      0x36f build/XC32-PIC32_ETH_SK_ETH795/production/_ext/1840844407/MPFS2.o
 .debug_line    0x00003542      0x11d build/XC32-PIC32_ETH_SK_ETH795/production/_ext/1472/MPFSImg2.o
 .debug_line    0x0000365f      0x24b build/XC32-PIC32_ETH_SK_ETH795/production/_ext/1840844407/NBNS.o
 .debug_line    0x000038aa      0x100 build/XC32-PIC32_ETH_SK_ETH795/production/_ext/1840844407/Random.o
 .debug_line    0x000039aa      0x1cd build/XC32-PIC32_ETH_SK_ETH795/production/_ext/1840844407/Reboot.o
 .debug_line    0x00003b77      0x220 build/XC32-PIC32_ETH_SK_ETH795/production/_ext/1840844407/StackTsk.o
 .debug_line    0x00003d97      0xb8e build/XC32-PIC32_ETH_SK_ETH795/production/_ext/1840844407/TCP.o
 .debug_line    0x00004925      0x100 build/XC32-PIC32_ETH_SK_ETH795/production/_ext/1840844407/Telnet.o
 .debug_line    0x00004a25      0x1b2 build/XC32-PIC32_ETH_SK_ETH795/production/_ext/1840844407/Tick.o
 .debug_line    0x00004bd7      0x100 build/XC32-PIC32_ETH_SK_ETH795/production/_ext/1840844407/UART.o
 .debug_line    0x00004cd7      0x382 build/XC32-PIC32_ETH_SK_ETH795/production/_ext/1840844407/UDP.o
 .debug_line    0x00005059      0x29b build/XC32-PIC32_ETH_SK_ETH795/production/_ext/1360937237/Main.o
 .debug_line    0x000052f4        0x0 build/XC32-PIC32_ETH_SK_ETH795/production/_ext/1360937237/dmx.o
 .debug_line    0x000052f4        0x0 build/XC32-PIC32_ETH_SK_ETH795/production/_ext/1360937237/gva_dmx.o
 .debug_line    0x000052f4      0x154 build/XC32-PIC32_ETH_SK_ETH795/production/_ext/1360937237/Ping.o
 .debug_line    0x00005448      0x532 build/XC32-PIC32_ETH_SK_ETH795/production/_ext/1360937237/HTTPApp.o
 .debug_line    0x0000597a      0x261 build/XC32-PIC32_ETH_SK_ETH795/production/_ext/1360937237/artnet.o
 .debug_line    0x00005bdb       0x6e c:/program files/microchip/xc32/v1.31/bin/../lib/gcc/pic32mx/4.5.2/../../../../pic32mx/lib\libmchp_peripheral.a(read_core_timer_lib.o)
 .debug_line    0x00005c49       0x80 c:/program files/microchip/xc32/v1.31/bin/../lib/gcc/pic32mx/4.5.2/../../../../pic32mx/lib\libmchp_peripheral_32MX795F512L.a(eth_ack_packet_lib.o)
 .debug_line    0x00005cc9       0x85 c:/program files/microchip/xc32/v1.31/bin/../lib/gcc/pic32mx/4.5.2/../../../../pic32mx/lib\libmchp_peripheral_32MX795F512L.a(eth_descriptors_add_lib.o)
 .debug_line    0x00005d4e       0x77 c:/program files/microchip/xc32/v1.31/bin/../lib/gcc/pic32mx/4.5.2/../../../../pic32mx/lib\libmchp_peripheral_32MX795F512L.a(eth_init_lib.o)
 .debug_line    0x00005dc5       0x69 c:/program files/microchip/xc32/v1.31/bin/../lib/gcc/pic32mx/4.5.2/../../../../pic32mx/lib\libmchp_peripheral_32MX795F512L.a(eth_mac_open_lib.o)
 .debug_line    0x00005e2e       0x74 c:/program files/microchip/xc32/v1.31/bin/../lib/gcc/pic32mx/4.5.2/../../../../pic32mx/lib\libmchp_peripheral_32MX795F512L.a(eth_mac_set_address_max_lib.o)
 .debug_line    0x00005ea2       0x87 c:/program files/microchip/xc32/v1.31/bin/../lib/gcc/pic32mx/4.5.2/../../../../pic32mx/lib\libmchp_peripheral_32MX795F512L.a(eth_rx_buffers_append_lib.o)
 .debug_line    0x00005f29       0x6b c:/program files/microchip/xc32/v1.31/bin/../lib/gcc/pic32mx/4.5.2/../../../../pic32mx/lib\libmchp_peripheral_32MX795F512L.a(eth_rx_filters_lib.o)
 .debug_line    0x00005f94       0x6e c:/program files/microchip/xc32/v1.31/bin/../lib/gcc/pic32mx/4.5.2/../../../../pic32mx/lib\libmchp_peripheral_32MX795F512L.a(eth_rx_get_packet_lib.o)
 .debug_line    0x00006002       0x73 c:/program files/microchip/xc32/v1.31/bin/../lib/gcc/pic32mx/4.5.2/../../../../pic32mx/lib\libmchp_peripheral_32MX795F512L.a(eth_rx_set_buffer_size_lib.o)
 .debug_line    0x00006075       0x7f c:/program files/microchip/xc32/v1.31/bin/../lib/gcc/pic32mx/4.5.2/../../../../pic32mx/lib\libmchp_peripheral_32MX795F512L.a(eth_tx_packet_lib.o)
 .debug_line    0x000060f4       0x87 c:/program files/microchip/xc32/v1.31/bin/../lib/gcc/pic32mx/4.5.2/../../../../pic32mx/lib\libmchp_peripheral_32MX795F512L.a(_eth_append_busy_list_lib.o)
 .debug_line    0x0000617b       0x68 c:/program files/microchip/xc32/v1.31/bin/../lib/gcc/pic32mx/4.5.2/../../../../pic32mx/lib\libmchp_peripheral_32MX795F512L.a(eth_miim_access.o)
 .debug_line    0x000061e3       0xbf c:/program files/microchip/xc32/v1.31/bin/../lib/gcc/pic32mx/4.5.2/../../../../pic32mx/lib\libmchp_peripheral_32MX795F512L.a(soft_reset_lib.o)
 .debug_line    0x000062a2       0x62 c:/program files/microchip/xc32/v1.31/bin/../lib/gcc/pic32mx/4.5.2/../../../../pic32mx/lib\libmchp_peripheral_32MX795F512L.a(pcache.o)
 .debug_line    0x00006304       0x73 c:/program files/microchip/xc32/v1.31/bin/../lib/gcc/pic32mx/4.5.2/../../../../pic32mx/lib\libmchp_peripheral_32MX795F512L.a(int_disable_interrupts_lib.o)
 .debug_line    0x00006377       0x73 c:/program files/microchip/xc32/v1.31/bin/../lib/gcc/pic32mx/4.5.2/../../../../pic32mx/lib\libmchp_peripheral_32MX795F512L.a(int_restore_interrupts_lib.o)
 .debug_line    0x000063ea       0x6e c:/program files/microchip/xc32/v1.31/bin/../lib/gcc/pic32mx/4.5.2/../../../../pic32mx/lib\libmchp_peripheral_32MX795F512L.a(int_enable_mv_int_lib.o)
 .debug_line    0x00006458       0x64 c:/program files/microchip/xc32/v1.31/bin/../lib/gcc/pic32mx/4.5.2/../../../../pic32mx/lib\libmchp_peripheral_32MX795F512L.a(int_tbl_lib.o)
 .debug_line    0x000064bc       0x77 c:/program files/microchip/xc32/v1.31/bin/../lib/gcc/pic32mx/4.5.2/../../../../pic32mx/lib\libmchp_peripheral_32MX795F512L.a(port_set_pins_digital_in_lib.o)
 .debug_line    0x00006533       0x78 c:/program files/microchip/xc32/v1.31/bin/../lib/gcc/pic32mx/4.5.2/../../../../pic32mx/lib\libmchp_peripheral_32MX795F512L.a(port_set_pins_digital_out_lib.o)
 .debug_line    0x000065ab        0x0 c:/program files/microchip/xc32/v1.31/bin/../lib/gcc/pic32mx/4.5.2/../../../../pic32mx/lib\libmchp_peripheral_32MX795F512L.a(_ports_tbl_libp.o)
 .debug_line    0x000065ab       0x72 c:/program files/microchip/xc32/v1.31/bin/../lib/gcc/pic32mx/4.5.2/../../../../pic32mx/lib\libmchp_peripheral_32MX795F512L.a(int_enable_interrupts_lib.o)
 .debug_line    0x0000661d      0x158 c:/program files/microchip/xc32/v1.31/bin/../lib/gcc/pic32mx/4.5.2\libgcc.a(_udivdi3.o)
 .debug_line    0x00006775      0x159 c:/program files/microchip/xc32/v1.31/bin/../lib/gcc/pic32mx/4.5.2\libgcc.a(_umoddi3.o)
 .debug_line    0x000068ce       0x97 c:/program files/microchip/xc32/v1.31/bin/../lib/gcc/pic32mx/4.5.2/../../../../pic32mx/lib\libpic32.a(default-bootstrap-exception-handler.o)
 .debug_line    0x00006965       0x84 c:/program files/microchip/xc32/v1.31/bin/../lib/gcc/pic32mx/4.5.2/../../../../pic32mx/lib\libpic32.a(default-on-reset.o)
 .debug_line    0x000069e9       0x88 c:/program files/microchip/xc32/v1.31/bin/../lib/gcc/pic32mx/4.5.2/../../../../pic32mx/lib\libpic32.a(default-on-bootstrap.o)
 .debug_line    0x00006a71       0x96 c:/program files/microchip/xc32/v1.31/bin/../lib/gcc/pic32mx/4.5.2/../../../../pic32mx/lib\libpic32.a(defaultinterrupt.o)
 .debug_line    0x00006b07       0x6e c:/program files/microchip/xc32/v1.31/bin/../lib/gcc/pic32mx/4.5.2/../../../../pic32mx/lib\libc.a(atol.o)
 .debug_line    0x00006b75       0x70 c:/program files/microchip/xc32/v1.31/bin/../lib/gcc/pic32mx/4.5.2/../../../../pic32mx/lib\libc.a(calloc.o)
 .debug_line    0x00006be5        0x0 c:/program files/microchip/xc32/v1.31/bin/../lib/gcc/pic32mx/4.5.2/../../../../pic32mx/lib\libc.a(ctype.o)
 .debug_line    0x00006be5       0x70 c:/program files/microchip/xc32/v1.31/bin/../lib/gcc/pic32mx/4.5.2/../../../../pic32mx/lib\libc.a(malloc.o)
 .debug_line    0x00006c55       0x71 c:/program files/microchip/xc32/v1.31/bin/../lib/gcc/pic32mx/4.5.2/../../../../pic32mx/lib\libc.a(strncpy.o)
 .debug_line    0x00006cc6       0x78 c:/program files/microchip/xc32/v1.31/bin/../lib/gcc/pic32mx/4.5.2/../../../../pic32mx/lib\libpic32.a(sbrk.o)
 .debug_line    0x00006d3e        0x0 c:/program files/microchip/xc32/v1.31/bin/../lib/gcc/pic32mx/4.5.2/../../../../pic32mx/lib\libpic32.a(errno.o)

.debug_frame    0x00000000     0x27ec
 *(.debug_frame)
 .debug_frame   0x00000000       0xd4 build/XC32-PIC32_ETH_SK_ETH795/production/_ext/1840844407/ARP.o
 .debug_frame   0x000000d4      0x154 build/XC32-PIC32_ETH_SK_ETH795/production/_ext/1840844407/DHCP.o
 .debug_frame   0x00000228      0x198 build/XC32-PIC32_ETH_SK_ETH795/production/_ext/1840844407/DHCPs.o
 .debug_frame   0x000003c0       0xb8 build/XC32-PIC32_ETH_SK_ETH795/production/_ext/1840844407/DNS.o
 .debug_frame   0x00000478       0x48 build/XC32-PIC32_ETH_SK_ETH795/production/_ext/1840844407/Delay.o
 .debug_frame   0x000004c0       0xbc build/XC32-PIC32_ETH_SK_ETH795/production/_ext/1840844407/DynDNS.o
 .debug_frame   0x0000057c      0x160 build/XC32-PIC32_ETH_SK_ETH795/production/_ext/1840844407/ETHPIC32ExtPhy.o
 .debug_frame   0x000006dc       0x80 build/XC32-PIC32_ETH_SK_ETH795/production/_ext/1840844407/ETHPIC32ExtPhyDP83848.o
 .debug_frame   0x0000075c      0x2cc build/XC32-PIC32_ETH_SK_ETH795/production/_ext/1840844407/ETHPIC32IntMac.o
 .debug_frame   0x00000a28      0x204 build/XC32-PIC32_ETH_SK_ETH795/production/_ext/1840844407/HTTP2.o
 .debug_frame   0x00000c2c       0x9c build/XC32-PIC32_ETH_SK_ETH795/production/_ext/1840844407/Hashes.o
 .debug_frame   0x00000cc8      0x20c build/XC32-PIC32_ETH_SK_ETH795/production/_ext/1840844407/Helpers.o
 .debug_frame   0x00000ed4       0xb8 build/XC32-PIC32_ETH_SK_ETH795/production/_ext/1840844407/ICMP.o
 .debug_frame   0x00000f8c       0x80 build/XC32-PIC32_ETH_SK_ETH795/production/_ext/1840844407/IP.o
 .debug_frame   0x0000100c      0x248 build/XC32-PIC32_ETH_SK_ETH795/production/_ext/1840844407/MPFS2.o
 .debug_frame   0x00001254       0x64 build/XC32-PIC32_ETH_SK_ETH795/production/_ext/1840844407/NBNS.o
 .debug_frame   0x000012b8       0x2c build/XC32-PIC32_ETH_SK_ETH795/production/_ext/1840844407/Reboot.o
 .debug_frame   0x000012e4       0x64 build/XC32-PIC32_ETH_SK_ETH795/production/_ext/1840844407/StackTsk.o
 .debug_frame   0x00001348      0x3dc build/XC32-PIC32_ETH_SK_ETH795/production/_ext/1840844407/TCP.o
 .debug_frame   0x00001724       0xd8 build/XC32-PIC32_ETH_SK_ETH795/production/_ext/1840844407/Tick.o
 .debug_frame   0x000017fc      0x210 build/XC32-PIC32_ETH_SK_ETH795/production/_ext/1840844407/UDP.o
 .debug_frame   0x00001a0c       0x9c build/XC32-PIC32_ETH_SK_ETH795/production/_ext/1360937237/Main.o
 .debug_frame   0x00001aa8       0x2c build/XC32-PIC32_ETH_SK_ETH795/production/_ext/1360937237/Ping.o
 .debug_frame   0x00001ad4      0x4a0 build/XC32-PIC32_ETH_SK_ETH795/production/_ext/1360937237/HTTPApp.o
 .debug_frame   0x00001f74       0xb8 build/XC32-PIC32_ETH_SK_ETH795/production/_ext/1360937237/artnet.o
 .debug_frame   0x0000202c       0x20 c:/program files/microchip/xc32/v1.31/bin/../lib/gcc/pic32mx/4.5.2/../../../../pic32mx/lib\libmchp_peripheral.a(read_core_timer_lib.o)
 .debug_frame   0x0000204c       0xb8 c:/program files/microchip/xc32/v1.31/bin/../lib/gcc/pic32mx/4.5.2/../../../../pic32mx/lib\libmchp_peripheral_32MX795F512L.a(eth_ack_packet_lib.o)
 .debug_frame   0x00002104       0x54 c:/program files/microchip/xc32/v1.31/bin/../lib/gcc/pic32mx/4.5.2/../../../../pic32mx/lib\libmchp_peripheral_32MX795F512L.a(eth_descriptors_add_lib.o)
 .debug_frame   0x00002158       0x28 c:/program files/microchip/xc32/v1.31/bin/../lib/gcc/pic32mx/4.5.2/../../../../pic32mx/lib\libmchp_peripheral_32MX795F512L.a(eth_init_lib.o)
 .debug_frame   0x00002180       0x20 c:/program files/microchip/xc32/v1.31/bin/../lib/gcc/pic32mx/4.5.2/../../../../pic32mx/lib\libmchp_peripheral_32MX795F512L.a(eth_mac_open_lib.o)
 .debug_frame   0x000021a0       0x50 c:/program files/microchip/xc32/v1.31/bin/../lib/gcc/pic32mx/4.5.2/../../../../pic32mx/lib\libmchp_peripheral_32MX795F512L.a(eth_mac_set_address_max_lib.o)
 .debug_frame   0x000021f0       0x28 c:/program files/microchip/xc32/v1.31/bin/../lib/gcc/pic32mx/4.5.2/../../../../pic32mx/lib\libmchp_peripheral_32MX795F512L.a(eth_rx_buffers_append_lib.o)
 .debug_frame   0x00002218       0x70 c:/program files/microchip/xc32/v1.31/bin/../lib/gcc/pic32mx/4.5.2/../../../../pic32mx/lib\libmchp_peripheral_32MX795F512L.a(eth_rx_filters_lib.o)
 .debug_frame   0x00002288       0x3c c:/program files/microchip/xc32/v1.31/bin/../lib/gcc/pic32mx/4.5.2/../../../../pic32mx/lib\libmchp_peripheral_32MX795F512L.a(eth_rx_get_packet_lib.o)
 .debug_frame   0x000022c4       0x20 c:/program files/microchip/xc32/v1.31/bin/../lib/gcc/pic32mx/4.5.2/../../../../pic32mx/lib\libmchp_peripheral_32MX795F512L.a(eth_rx_set_buffer_size_lib.o)
 .debug_frame   0x000022e4       0x8c c:/program files/microchip/xc32/v1.31/bin/../lib/gcc/pic32mx/4.5.2/../../../../pic32mx/lib\libmchp_peripheral_32MX795F512L.a(eth_tx_packet_lib.o)
 .debug_frame   0x00002370       0x20 c:/program files/microchip/xc32/v1.31/bin/../lib/gcc/pic32mx/4.5.2/../../../../pic32mx/lib\libmchp_peripheral_32MX795F512L.a(_eth_append_busy_list_lib.o)
 .debug_frame   0x00002390       0x70 c:/program files/microchip/xc32/v1.31/bin/../lib/gcc/pic32mx/4.5.2/../../../../pic32mx/lib\libmchp_peripheral_32MX795F512L.a(eth_miim_access.o)
 .debug_frame   0x00002400       0x28 c:/program files/microchip/xc32/v1.31/bin/../lib/gcc/pic32mx/4.5.2/../../../../pic32mx/lib\libmchp_peripheral_32MX795F512L.a(soft_reset_lib.o)
 .debug_frame   0x00002428       0x30 c:/program files/microchip/xc32/v1.31/bin/../lib/gcc/pic32mx/4.5.2/../../../../pic32mx/lib\libmchp_peripheral_32MX795F512L.a(pcache.o)
 .debug_frame   0x00002458       0x20 c:/program files/microchip/xc32/v1.31/bin/../lib/gcc/pic32mx/4.5.2/../../../../pic32mx/lib\libmchp_peripheral_32MX795F512L.a(int_disable_interrupts_lib.o)
 .debug_frame   0x00002478       0x20 c:/program files/microchip/xc32/v1.31/bin/../lib/gcc/pic32mx/4.5.2/../../../../pic32mx/lib\libmchp_peripheral_32MX795F512L.a(int_restore_interrupts_lib.o)
 .debug_frame   0x00002498       0x28 c:/program files/microchip/xc32/v1.31/bin/../lib/gcc/pic32mx/4.5.2/../../../../pic32mx/lib\libmchp_peripheral_32MX795F512L.a(int_enable_mv_int_lib.o)
 .debug_frame   0x000024c0       0xa0 c:/program files/microchip/xc32/v1.31/bin/../lib/gcc/pic32mx/4.5.2/../../../../pic32mx/lib\libmchp_peripheral_32MX795F512L.a(int_tbl_lib.o)
 .debug_frame   0x00002560       0x20 c:/program files/microchip/xc32/v1.31/bin/../lib/gcc/pic32mx/4.5.2/../../../../pic32mx/lib\libmchp_peripheral_32MX795F512L.a(port_set_pins_digital_in_lib.o)
 .debug_frame   0x00002580       0x20 c:/program files/microchip/xc32/v1.31/bin/../lib/gcc/pic32mx/4.5.2/../../../../pic32mx/lib\libmchp_peripheral_32MX795F512L.a(port_set_pins_digital_out_lib.o)
 .debug_frame   0x000025a0       0x20 c:/program files/microchip/xc32/v1.31/bin/../lib/gcc/pic32mx/4.5.2/../../../../pic32mx/lib\libmchp_peripheral_32MX795F512L.a(int_enable_interrupts_lib.o)
 .debug_frame   0x000025c0       0x20 c:/program files/microchip/xc32/v1.31/bin/../lib/gcc/pic32mx/4.5.2\libgcc.a(_udivdi3.o)
 .debug_frame   0x000025e0       0x20 c:/program files/microchip/xc32/v1.31/bin/../lib/gcc/pic32mx/4.5.2\libgcc.a(_umoddi3.o)
 .debug_frame   0x00002600       0x28 c:/program files/microchip/xc32/v1.31/bin/../lib/gcc/pic32mx/4.5.2/../../../../pic32mx/lib\libpic32.a(default-bootstrap-exception-handler.o)
 .debug_frame   0x00002628       0x20 c:/program files/microchip/xc32/v1.31/bin/../lib/gcc/pic32mx/4.5.2/../../../../pic32mx/lib\libpic32.a(default-on-reset.o)
 .debug_frame   0x00002648       0x20 c:/program files/microchip/xc32/v1.31/bin/../lib/gcc/pic32mx/4.5.2/../../../../pic32mx/lib\libpic32.a(default-on-bootstrap.o)
 .debug_frame   0x00002668       0x20 c:/program files/microchip/xc32/v1.31/bin/../lib/gcc/pic32mx/4.5.2/../../../../pic32mx/lib\libpic32.a(defaultinterrupt.o)
 .debug_frame   0x00002688       0x20 c:/program files/microchip/xc32/v1.31/bin/../lib/gcc/pic32mx/4.5.2/../../../../pic32mx/lib\libc.a(atol.o)
 .debug_frame   0x000026a8       0x2c c:/program files/microchip/xc32/v1.31/bin/../lib/gcc/pic32mx/4.5.2/../../../../pic32mx/lib\libc.a(calloc.o)
 .debug_frame   0x000026d4       0x6c c:/program files/microchip/xc32/v1.31/bin/../lib/gcc/pic32mx/4.5.2/../../../../pic32mx/lib\libc.a(malloc.o)
 .debug_frame   0x00002740       0x20 c:/program files/microchip/xc32/v1.31/bin/../lib/gcc/pic32mx/4.5.2/../../../../pic32mx/lib\libc.a(strncpy.o)
 .debug_frame   0x00002760       0x8c c:/program files/microchip/xc32/v1.31/bin/../lib/gcc/pic32mx/4.5.2/../../../../pic32mx/lib\libpic32.a(sbrk.o)

.debug_str      0x00000000     0x2e69
 *(.debug_str)
 .debug_str     0x00000000      0x12f build/XC32-PIC32_ETH_SK_ETH795/production/_ext/1840844407/ARCFOUR.o
 .debug_str     0x0000012f      0x147 build/XC32-PIC32_ETH_SK_ETH795/production/_ext/1840844407/ARP.o
 .debug_str     0x00000276      0x12f build/XC32-PIC32_ETH_SK_ETH795/production/_ext/1840844407/AutoIP.o
 .debug_str     0x000003a5      0x12f build/XC32-PIC32_ETH_SK_ETH795/production/_ext/1840844407/BigInt.o
 .debug_str     0x000004d4      0x177 build/XC32-PIC32_ETH_SK_ETH795/production/_ext/1840844407/DHCP.o
 .debug_str     0x0000064b      0x181 build/XC32-PIC32_ETH_SK_ETH795/production/_ext/1840844407/DHCPs.o
 .debug_str     0x000007cc      0x139 build/XC32-PIC32_ETH_SK_ETH795/production/_ext/1840844407/DNS.o
 .debug_str     0x00000905      0x12f build/XC32-PIC32_ETH_SK_ETH795/production/_ext/1840844407/DNSs.o
 .debug_str     0x00000a34      0x12f build/XC32-PIC32_ETH_SK_ETH795/production/_ext/1840844407/Delay.o
 .debug_str     0x00000b63      0x184 build/XC32-PIC32_ETH_SK_ETH795/production/_ext/1840844407/DynDNS.o
 .debug_str     0x00000ce7      0x1bd build/XC32-PIC32_ETH_SK_ETH795/production/_ext/1840844407/ETHPIC32ExtPhy.o
 .debug_str     0x00000ea4      0x12f build/XC32-PIC32_ETH_SK_ETH795/production/_ext/1840844407/ETHPIC32ExtPhyDP83848.o
 .debug_str     0x00000fd3      0x1d9 build/XC32-PIC32_ETH_SK_ETH795/production/_ext/1840844407/ETHPIC32IntMac.o
 .debug_str     0x000011ac      0x12f build/XC32-PIC32_ETH_SK_ETH795/production/_ext/1840844407/FileSystem.o
 .debug_str     0x000012db      0x15b build/XC32-PIC32_ETH_SK_ETH795/production/_ext/1840844407/HTTP2.o
 .debug_str     0x00001436      0x140 build/XC32-PIC32_ETH_SK_ETH795/production/_ext/1840844407/Hashes.o
 .debug_str     0x00001576      0x16c build/XC32-PIC32_ETH_SK_ETH795/production/_ext/1840844407/Helpers.o
 .debug_str     0x000016e2      0x12f build/XC32-PIC32_ETH_SK_ETH795/production/_ext/1840844407/ICMP.o
 .debug_str     0x00001811      0x142 build/XC32-PIC32_ETH_SK_ETH795/production/_ext/1840844407/IP.o
 .debug_str     0x00001953      0x153 build/XC32-PIC32_ETH_SK_ETH795/production/_ext/1840844407/MPFS2.o
 .debug_str     0x00001aa6      0x12f build/XC32-PIC32_ETH_SK_ETH795/production/_ext/1472/MPFSImg2.o
 .debug_str     0x00001bd5      0x152 build/XC32-PIC32_ETH_SK_ETH795/production/_ext/1840844407/NBNS.o
 .debug_str     0x00001d27      0x12f build/XC32-PIC32_ETH_SK_ETH795/production/_ext/1840844407/Random.o
 .debug_str     0x00001e56      0x14d build/XC32-PIC32_ETH_SK_ETH795/production/_ext/1840844407/Reboot.o
 .debug_str     0x00001fa3      0x144 build/XC32-PIC32_ETH_SK_ETH795/production/_ext/1840844407/StackTsk.o
 .debug_str     0x000020e7      0x1fa build/XC32-PIC32_ETH_SK_ETH795/production/_ext/1840844407/TCP.o
 .debug_str     0x000022e1      0x12f build/XC32-PIC32_ETH_SK_ETH795/production/_ext/1840844407/Telnet.o
 .debug_str     0x00002410      0x14b build/XC32-PIC32_ETH_SK_ETH795/production/_ext/1840844407/Tick.o
 .debug_str     0x0000255b      0x12f build/XC32-PIC32_ETH_SK_ETH795/production/_ext/1840844407/UART.o
 .debug_str     0x0000268a      0x1ae build/XC32-PIC32_ETH_SK_ETH795/production/_ext/1840844407/UDP.o
 .debug_str     0x00002838      0x1a6 build/XC32-PIC32_ETH_SK_ETH795/production/_ext/1360937237/Main.o
 .debug_str     0x000029de        0x0 build/XC32-PIC32_ETH_SK_ETH795/production/_ext/1360937237/dmx.o
 .debug_str     0x000029de        0x0 build/XC32-PIC32_ETH_SK_ETH795/production/_ext/1360937237/gva_dmx.o
 .debug_str     0x000029de      0x139 build/XC32-PIC32_ETH_SK_ETH795/production/_ext/1360937237/Ping.o
 .debug_str     0x00002b17      0x1e5 build/XC32-PIC32_ETH_SK_ETH795/production/_ext/1360937237/HTTPApp.o
 .debug_str     0x00002cfc      0x16d build/XC32-PIC32_ETH_SK_ETH795/production/_ext/1360937237/artnet.o
 .debug_str     0x00002e69        0x0 c:/program files/microchip/xc32/v1.31/bin/../lib/gcc/pic32mx/4.5.2/../../../../pic32mx/lib\libmchp_peripheral.a(read_core_timer_lib.o)
 .debug_str     0x00002e69        0x0 c:/program files/microchip/xc32/v1.31/bin/../lib/gcc/pic32mx/4.5.2/../../../../pic32mx/lib\libmchp_peripheral_32MX795F512L.a(eth_ack_packet_lib.o)
 .debug_str     0x00002e69        0x0 c:/program files/microchip/xc32/v1.31/bin/../lib/gcc/pic32mx/4.5.2/../../../../pic32mx/lib\libmchp_peripheral_32MX795F512L.a(eth_descriptors_add_lib.o)
 .debug_str     0x00002e69        0x0 c:/program files/microchip/xc32/v1.31/bin/../lib/gcc/pic32mx/4.5.2/../../../../pic32mx/lib\libmchp_peripheral_32MX795F512L.a(eth_init_lib.o)
 .debug_str     0x00002e69        0x0 c:/program files/microchip/xc32/v1.31/bin/../lib/gcc/pic32mx/4.5.2/../../../../pic32mx/lib\libmchp_peripheral_32MX795F512L.a(eth_mac_open_lib.o)
 .debug_str     0x00002e69        0x0 c:/program files/microchip/xc32/v1.31/bin/../lib/gcc/pic32mx/4.5.2/../../../../pic32mx/lib\libmchp_peripheral_32MX795F512L.a(eth_mac_set_address_max_lib.o)
 .debug_str     0x00002e69        0x0 c:/program files/microchip/xc32/v1.31/bin/../lib/gcc/pic32mx/4.5.2/../../../../pic32mx/lib\libmchp_peripheral_32MX795F512L.a(eth_rx_buffers_append_lib.o)
 .debug_str     0x00002e69        0x0 c:/program files/microchip/xc32/v1.31/bin/../lib/gcc/pic32mx/4.5.2/../../../../pic32mx/lib\libmchp_peripheral_32MX795F512L.a(eth_rx_filters_lib.o)
 .debug_str     0x00002e69        0x0 c:/program files/microchip/xc32/v1.31/bin/../lib/gcc/pic32mx/4.5.2/../../../../pic32mx/lib\libmchp_peripheral_32MX795F512L.a(eth_rx_get_packet_lib.o)
 .debug_str     0x00002e69        0x0 c:/program files/microchip/xc32/v1.31/bin/../lib/gcc/pic32mx/4.5.2/../../../../pic32mx/lib\libmchp_peripheral_32MX795F512L.a(eth_rx_set_buffer_size_lib.o)
 .debug_str     0x00002e69        0x0 c:/program files/microchip/xc32/v1.31/bin/../lib/gcc/pic32mx/4.5.2/../../../../pic32mx/lib\libmchp_peripheral_32MX795F512L.a(eth_tx_packet_lib.o)
 .debug_str     0x00002e69        0x0 c:/program files/microchip/xc32/v1.31/bin/../lib/gcc/pic32mx/4.5.2/../../../../pic32mx/lib\libmchp_peripheral_32MX795F512L.a(_eth_append_busy_list_lib.o)
 .debug_str     0x00002e69        0x0 c:/program files/microchip/xc32/v1.31/bin/../lib/gcc/pic32mx/4.5.2/../../../../pic32mx/lib\libmchp_peripheral_32MX795F512L.a(eth_miim_access.o)
 .debug_str     0x00002e69        0x0 c:/program files/microchip/xc32/v1.31/bin/../lib/gcc/pic32mx/4.5.2/../../../../pic32mx/lib\libmchp_peripheral_32MX795F512L.a(soft_reset_lib.o)
 .debug_str     0x00002e69        0x0 c:/program files/microchip/xc32/v1.31/bin/../lib/gcc/pic32mx/4.5.2/../../../../pic32mx/lib\libmchp_peripheral_32MX795F512L.a(pcache.o)
 .debug_str     0x00002e69        0x0 c:/program files/microchip/xc32/v1.31/bin/../lib/gcc/pic32mx/4.5.2/../../../../pic32mx/lib\libmchp_peripheral_32MX795F512L.a(int_disable_interrupts_lib.o)
 .debug_str     0x00002e69        0x0 c:/program files/microchip/xc32/v1.31/bin/../lib/gcc/pic32mx/4.5.2/../../../../pic32mx/lib\libmchp_peripheral_32MX795F512L.a(int_restore_interrupts_lib.o)
 .debug_str     0x00002e69        0x0 c:/program files/microchip/xc32/v1.31/bin/../lib/gcc/pic32mx/4.5.2/../../../../pic32mx/lib\libmchp_peripheral_32MX795F512L.a(int_enable_mv_int_lib.o)
 .debug_str     0x00002e69        0x0 c:/program files/microchip/xc32/v1.31/bin/../lib/gcc/pic32mx/4.5.2/../../../../pic32mx/lib\libmchp_peripheral_32MX795F512L.a(int_tbl_lib.o)
 .debug_str     0x00002e69        0x0 c:/program files/microchip/xc32/v1.31/bin/../lib/gcc/pic32mx/4.5.2/../../../../pic32mx/lib\libmchp_peripheral_32MX795F512L.a(port_set_pins_digital_in_lib.o)
 .debug_str     0x00002e69        0x0 c:/program files/microchip/xc32/v1.31/bin/../lib/gcc/pic32mx/4.5.2/../../../../pic32mx/lib\libmchp_peripheral_32MX795F512L.a(port_set_pins_digital_out_lib.o)
 .debug_str     0x00002e69        0x0 c:/program files/microchip/xc32/v1.31/bin/../lib/gcc/pic32mx/4.5.2/../../../../pic32mx/lib\libmchp_peripheral_32MX795F512L.a(_ports_tbl_libp.o)
 .debug_str     0x00002e69        0x0 c:/program files/microchip/xc32/v1.31/bin/../lib/gcc/pic32mx/4.5.2/../../../../pic32mx/lib\libmchp_peripheral_32MX795F512L.a(int_enable_interrupts_lib.o)
 .debug_str     0x00002e69        0x0 c:/program files/microchip/xc32/v1.31/bin/../lib/gcc/pic32mx/4.5.2\libgcc.a(_udivdi3.o)
 .debug_str     0x00002e69        0x0 c:/program files/microchip/xc32/v1.31/bin/../lib/gcc/pic32mx/4.5.2\libgcc.a(_umoddi3.o)
 .debug_str     0x00002e69        0x0 c:/program files/microchip/xc32/v1.31/bin/../lib/gcc/pic32mx/4.5.2/../../../../pic32mx/lib\libpic32.a(default-bootstrap-exception-handler.o)
 .debug_str     0x00002e69        0x0 c:/program files/microchip/xc32/v1.31/bin/../lib/gcc/pic32mx/4.5.2/../../../../pic32mx/lib\libpic32.a(default-on-reset.o)
 .debug_str     0x00002e69        0x0 c:/program files/microchip/xc32/v1.31/bin/../lib/gcc/pic32mx/4.5.2/../../../../pic32mx/lib\libpic32.a(default-on-bootstrap.o)
 .debug_str     0x00002e69        0x0 c:/program files/microchip/xc32/v1.31/bin/../lib/gcc/pic32mx/4.5.2/../../../../pic32mx/lib\libpic32.a(defaultinterrupt.o)
 .debug_str     0x00002e69        0x0 c:/program files/microchip/xc32/v1.31/bin/../lib/gcc/pic32mx/4.5.2/../../../../pic32mx/lib\libc.a(atol.o)
 .debug_str     0x00002e69        0x0 c:/program files/microchip/xc32/v1.31/bin/../lib/gcc/pic32mx/4.5.2/../../../../pic32mx/lib\libc.a(calloc.o)
 .debug_str     0x00002e69        0x0 c:/program files/microchip/xc32/v1.31/bin/../lib/gcc/pic32mx/4.5.2/../../../../pic32mx/lib\libc.a(ctype.o)
 .debug_str     0x00002e69        0x0 c:/program files/microchip/xc32/v1.31/bin/../lib/gcc/pic32mx/4.5.2/../../../../pic32mx/lib\libc.a(malloc.o)
 .debug_str     0x00002e69        0x0 c:/program files/microchip/xc32/v1.31/bin/../lib/gcc/pic32mx/4.5.2/../../../../pic32mx/lib\libc.a(strncpy.o)
 .debug_str     0x00002e69        0x0 c:/program files/microchip/xc32/v1.31/bin/../lib/gcc/pic32mx/4.5.2/../../../../pic32mx/lib\libpic32.a(sbrk.o)
 .debug_str     0x00002e69        0x0 c:/program files/microchip/xc32/v1.31/bin/../lib/gcc/pic32mx/4.5.2/../../../../pic32mx/lib\libpic32.a(errno.o)

.debug_loc      0x00000000     0x130f
 *(.debug_loc)
 .debug_loc     0x00000000      0x9f9 c:/program files/microchip/xc32/v1.31/bin/../lib/gcc/pic32mx/4.5.2\libgcc.a(_udivdi3.o)
 .debug_loc     0x000009f9      0x916 c:/program files/microchip/xc32/v1.31/bin/../lib/gcc/pic32mx/4.5.2\libgcc.a(_umoddi3.o)

.debug_macinfo
 *(.debug_macinfo)

.debug_weaknames
 *(.debug_weaknames)

.debug_funcnames
 *(.debug_funcnames)

.debug_typenames
 *(.debug_typenames)

.debug_varnames
 *(.debug_varnames)

.debug_pubtypes
                0x00000000     0x3126
 *(.debug_pubtypes)
 .debug_pubtypes
                0x00000000       0xe7 build/XC32-PIC32_ETH_SK_ETH795/production/_ext/1840844407/ARCFOUR.o
 .debug_pubtypes
                0x000000e7      0x17e build/XC32-PIC32_ETH_SK_ETH795/production/_ext/1840844407/ARP.o
 .debug_pubtypes
                0x00000265       0xe7 build/XC32-PIC32_ETH_SK_ETH795/production/_ext/1840844407/AutoIP.o
 .debug_pubtypes
                0x0000034c       0xe7 build/XC32-PIC32_ETH_SK_ETH795/production/_ext/1840844407/BigInt.o
 .debug_pubtypes
                0x00000433      0x1d8 build/XC32-PIC32_ETH_SK_ETH795/production/_ext/1840844407/DHCP.o
 .debug_pubtypes
                0x0000060b      0x1f7 build/XC32-PIC32_ETH_SK_ETH795/production/_ext/1840844407/DHCPs.o
 .debug_pubtypes
                0x00000802      0x1ad build/XC32-PIC32_ETH_SK_ETH795/production/_ext/1840844407/DNS.o
 .debug_pubtypes
                0x000009af       0xe7 build/XC32-PIC32_ETH_SK_ETH795/production/_ext/1840844407/DNSs.o
 .debug_pubtypes
                0x00000a96       0xfa build/XC32-PIC32_ETH_SK_ETH795/production/_ext/1840844407/Delay.o
 .debug_pubtypes
                0x00000b90      0x187 build/XC32-PIC32_ETH_SK_ETH795/production/_ext/1840844407/DynDNS.o
 .debug_pubtypes
                0x00000d17      0x1ae build/XC32-PIC32_ETH_SK_ETH795/production/_ext/1840844407/ETHPIC32ExtPhy.o
 .debug_pubtypes
                0x00000ec5      0x119 build/XC32-PIC32_ETH_SK_ETH795/production/_ext/1840844407/ETHPIC32ExtPhyDP83848.o
 .debug_pubtypes
                0x00000fde      0x1f6 build/XC32-PIC32_ETH_SK_ETH795/production/_ext/1840844407/ETHPIC32IntMac.o
 .debug_pubtypes
                0x000011d4       0xe7 build/XC32-PIC32_ETH_SK_ETH795/production/_ext/1840844407/FileSystem.o
 .debug_pubtypes
                0x000012bb      0x1c4 build/XC32-PIC32_ETH_SK_ETH795/production/_ext/1840844407/HTTP2.o
 .debug_pubtypes
                0x0000147f      0x11e build/XC32-PIC32_ETH_SK_ETH795/production/_ext/1840844407/Hashes.o
 .debug_pubtypes
                0x0000159d      0x167 build/XC32-PIC32_ETH_SK_ETH795/production/_ext/1840844407/Helpers.o
 .debug_pubtypes
                0x00001704      0x16f build/XC32-PIC32_ETH_SK_ETH795/production/_ext/1840844407/ICMP.o
 .debug_pubtypes
                0x00001873      0x18c build/XC32-PIC32_ETH_SK_ETH795/production/_ext/1840844407/IP.o
 .debug_pubtypes
                0x000019ff      0x168 build/XC32-PIC32_ETH_SK_ETH795/production/_ext/1840844407/MPFS2.o
 .debug_pubtypes
                0x00001b67       0xf0 build/XC32-PIC32_ETH_SK_ETH795/production/_ext/1472/MPFSImg2.o
 .debug_pubtypes
                0x00001c57      0x1bb build/XC32-PIC32_ETH_SK_ETH795/production/_ext/1840844407/NBNS.o
 .debug_pubtypes
                0x00001e12       0xe7 build/XC32-PIC32_ETH_SK_ETH795/production/_ext/1840844407/Random.o
 .debug_pubtypes
                0x00001ef9      0x17c build/XC32-PIC32_ETH_SK_ETH795/production/_ext/1840844407/Reboot.o
 .debug_pubtypes
                0x00002075      0x17c build/XC32-PIC32_ETH_SK_ETH795/production/_ext/1840844407/StackTsk.o
 .debug_pubtypes
                0x000021f1      0x224 build/XC32-PIC32_ETH_SK_ETH795/production/_ext/1840844407/TCP.o
 .debug_pubtypes
                0x00002415       0xe7 build/XC32-PIC32_ETH_SK_ETH795/production/_ext/1840844407/Telnet.o
 .debug_pubtypes
                0x000024fc      0x144 build/XC32-PIC32_ETH_SK_ETH795/production/_ext/1840844407/Tick.o
 .debug_pubtypes
                0x00002640       0xe7 build/XC32-PIC32_ETH_SK_ETH795/production/_ext/1840844407/UART.o
 .debug_pubtypes
                0x00002727      0x1eb build/XC32-PIC32_ETH_SK_ETH795/production/_ext/1840844407/UDP.o
 .debug_pubtypes
                0x00002912      0x1ac build/XC32-PIC32_ETH_SK_ETH795/production/_ext/1360937237/Main.o
 .debug_pubtypes
                0x00002abe      0x11f build/XC32-PIC32_ETH_SK_ETH795/production/_ext/1360937237/Ping.o
 .debug_pubtypes
                0x00002bdd      0x23f build/XC32-PIC32_ETH_SK_ETH795/production/_ext/1360937237/HTTPApp.o
 .debug_pubtypes
                0x00002e1c      0x258 build/XC32-PIC32_ETH_SK_ETH795/production/_ext/1360937237/artnet.o
 .debug_pubtypes
                0x00003074       0x59 c:/program files/microchip/xc32/v1.31/bin/../lib/gcc/pic32mx/4.5.2\libgcc.a(_udivdi3.o)
 .debug_pubtypes
                0x000030cd       0x59 c:/program files/microchip/xc32/v1.31/bin/../lib/gcc/pic32mx/4.5.2\libgcc.a(_umoddi3.o)

.debug_ranges   0x00000000      0x268
 *(.debug_ranges)
 .debug_ranges  0x00000000       0x10 c:/program files/microchip/xc32/v1.31/bin/../lib/gcc/pic32mx/4.5.2/../../../../pic32mx/lib\libmchp_peripheral.a(read_core_timer_lib.o)
 .debug_ranges  0x00000010       0x38 c:/program files/microchip/xc32/v1.31/bin/../lib/gcc/pic32mx/4.5.2/../../../../pic32mx/lib\libmchp_peripheral_32MX795F512L.a(eth_ack_packet_lib.o)
 .debug_ranges  0x00000048       0x18 c:/program files/microchip/xc32/v1.31/bin/../lib/gcc/pic32mx/4.5.2/../../../../pic32mx/lib\libmchp_peripheral_32MX795F512L.a(eth_descriptors_add_lib.o)
 .debug_ranges  0x00000060       0x10 c:/program files/microchip/xc32/v1.31/bin/../lib/gcc/pic32mx/4.5.2/../../../../pic32mx/lib\libmchp_peripheral_32MX795F512L.a(eth_init_lib.o)
 .debug_ranges  0x00000070       0x10 c:/program files/microchip/xc32/v1.31/bin/../lib/gcc/pic32mx/4.5.2/../../../../pic32mx/lib\libmchp_peripheral_32MX795F512L.a(eth_mac_open_lib.o)
 .debug_ranges  0x00000080       0x20 c:/program files/microchip/xc32/v1.31/bin/../lib/gcc/pic32mx/4.5.2/../../../../pic32mx/lib\libmchp_peripheral_32MX795F512L.a(eth_mac_set_address_max_lib.o)
 .debug_ranges  0x000000a0       0x10 c:/program files/microchip/xc32/v1.31/bin/../lib/gcc/pic32mx/4.5.2/../../../../pic32mx/lib\libmchp_peripheral_32MX795F512L.a(eth_rx_buffers_append_lib.o)
 .debug_ranges  0x000000b0       0x38 c:/program files/microchip/xc32/v1.31/bin/../lib/gcc/pic32mx/4.5.2/../../../../pic32mx/lib\libmchp_peripheral_32MX795F512L.a(eth_rx_filters_lib.o)
 .debug_ranges  0x000000e8       0x18 c:/program files/microchip/xc32/v1.31/bin/../lib/gcc/pic32mx/4.5.2/../../../../pic32mx/lib\libmchp_peripheral_32MX795F512L.a(eth_rx_get_packet_lib.o)
 .debug_ranges  0x00000100       0x10 c:/program files/microchip/xc32/v1.31/bin/../lib/gcc/pic32mx/4.5.2/../../../../pic32mx/lib\libmchp_peripheral_32MX795F512L.a(eth_rx_set_buffer_size_lib.o)
 .debug_ranges  0x00000110       0x38 c:/program files/microchip/xc32/v1.31/bin/../lib/gcc/pic32mx/4.5.2/../../../../pic32mx/lib\libmchp_peripheral_32MX795F512L.a(eth_tx_packet_lib.o)
 .debug_ranges  0x00000148       0x10 c:/program files/microchip/xc32/v1.31/bin/../lib/gcc/pic32mx/4.5.2/../../../../pic32mx/lib\libmchp_peripheral_32MX795F512L.a(_eth_append_busy_list_lib.o)
 .debug_ranges  0x00000158       0x38 c:/program files/microchip/xc32/v1.31/bin/../lib/gcc/pic32mx/4.5.2/../../../../pic32mx/lib\libmchp_peripheral_32MX795F512L.a(eth_miim_access.o)
 .debug_ranges  0x00000190       0x10 c:/program files/microchip/xc32/v1.31/bin/../lib/gcc/pic32mx/4.5.2/../../../../pic32mx/lib\libmchp_peripheral_32MX795F512L.a(soft_reset_lib.o)
 .debug_ranges  0x000001a0       0x18 c:/program files/microchip/xc32/v1.31/bin/../lib/gcc/pic32mx/4.5.2/../../../../pic32mx/lib\libmchp_peripheral_32MX795F512L.a(pcache.o)
 .debug_ranges  0x000001b8       0x10 c:/program files/microchip/xc32/v1.31/bin/../lib/gcc/pic32mx/4.5.2/../../../../pic32mx/lib\libmchp_peripheral_32MX795F512L.a(int_disable_interrupts_lib.o)
 .debug_ranges  0x000001c8       0x10 c:/program files/microchip/xc32/v1.31/bin/../lib/gcc/pic32mx/4.5.2/../../../../pic32mx/lib\libmchp_peripheral_32MX795F512L.a(int_restore_interrupts_lib.o)
 .debug_ranges  0x000001d8       0x10 c:/program files/microchip/xc32/v1.31/bin/../lib/gcc/pic32mx/4.5.2/../../../../pic32mx/lib\libmchp_peripheral_32MX795F512L.a(int_enable_mv_int_lib.o)
 .debug_ranges  0x000001e8       0x50 c:/program files/microchip/xc32/v1.31/bin/../lib/gcc/pic32mx/4.5.2/../../../../pic32mx/lib\libmchp_peripheral_32MX795F512L.a(int_tbl_lib.o)
 .debug_ranges  0x00000238       0x10 c:/program files/microchip/xc32/v1.31/bin/../lib/gcc/pic32mx/4.5.2/../../../../pic32mx/lib\libmchp_peripheral_32MX795F512L.a(port_set_pins_digital_in_lib.o)
 .debug_ranges  0x00000248       0x10 c:/program files/microchip/xc32/v1.31/bin/../lib/gcc/pic32mx/4.5.2/../../../../pic32mx/lib\libmchp_peripheral_32MX795F512L.a(port_set_pins_digital_out_lib.o)
 .debug_ranges  0x00000258       0x10 c:/program files/microchip/xc32/v1.31/bin/../lib/gcc/pic32mx/4.5.2/../../../../pic32mx/lib\libmchp_peripheral_32MX795F512L.a(int_enable_interrupts_lib.o)

.gnu.attributes
                0x00000000       0x10
 *(.gnu.attributes)
 .gnu.attributes
                0x00000000       0x10 build/XC32-PIC32_ETH_SK_ETH795/production/_ext/1840844407/ARCFOUR.o
 .gnu.attributes
                0x00000010       0x10 build/XC32-PIC32_ETH_SK_ETH795/production/_ext/1840844407/ARP.o
 .gnu.attributes
                0x00000020       0x10 build/XC32-PIC32_ETH_SK_ETH795/production/_ext/1840844407/AutoIP.o
 .gnu.attributes
                0x00000030       0x10 build/XC32-PIC32_ETH_SK_ETH795/production/_ext/1840844407/BigInt.o
 .gnu.attributes
                0x00000040       0x10 build/XC32-PIC32_ETH_SK_ETH795/production/_ext/1840844407/DHCP.o
 .gnu.attributes
                0x00000050       0x10 build/XC32-PIC32_ETH_SK_ETH795/production/_ext/1840844407/DHCPs.o
 .gnu.attributes
                0x00000060       0x10 build/XC32-PIC32_ETH_SK_ETH795/production/_ext/1840844407/DNS.o
 .gnu.attributes
                0x00000070       0x10 build/XC32-PIC32_ETH_SK_ETH795/production/_ext/1840844407/DNSs.o
 .gnu.attributes
                0x00000080       0x10 build/XC32-PIC32_ETH_SK_ETH795/production/_ext/1840844407/Delay.o
 .gnu.attributes
                0x00000090       0x10 build/XC32-PIC32_ETH_SK_ETH795/production/_ext/1840844407/DynDNS.o
 .gnu.attributes
                0x000000a0       0x10 build/XC32-PIC32_ETH_SK_ETH795/production/_ext/1840844407/ETHPIC32ExtPhy.o
 .gnu.attributes
                0x000000b0       0x10 build/XC32-PIC32_ETH_SK_ETH795/production/_ext/1840844407/ETHPIC32ExtPhyDP83848.o
 .gnu.attributes
                0x000000c0       0x10 build/XC32-PIC32_ETH_SK_ETH795/production/_ext/1840844407/ETHPIC32IntMac.o
 .gnu.attributes
                0x000000d0       0x10 build/XC32-PIC32_ETH_SK_ETH795/production/_ext/1840844407/FileSystem.o
 .gnu.attributes
                0x000000e0       0x10 build/XC32-PIC32_ETH_SK_ETH795/production/_ext/1840844407/HTTP2.o
 .gnu.attributes
                0x000000f0       0x10 build/XC32-PIC32_ETH_SK_ETH795/production/_ext/1840844407/Hashes.o
 .gnu.attributes
                0x00000100       0x10 build/XC32-PIC32_ETH_SK_ETH795/production/_ext/1840844407/Helpers.o
 .gnu.attributes
                0x00000110       0x10 build/XC32-PIC32_ETH_SK_ETH795/production/_ext/1840844407/ICMP.o
 .gnu.attributes
                0x00000120       0x10 build/XC32-PIC32_ETH_SK_ETH795/production/_ext/1840844407/IP.o
 .gnu.attributes
                0x00000130       0x10 build/XC32-PIC32_ETH_SK_ETH795/production/_ext/1840844407/MPFS2.o
 .gnu.attributes
                0x00000140       0x10 build/XC32-PIC32_ETH_SK_ETH795/production/_ext/1472/MPFSImg2.o
 .gnu.attributes
                0x00000150       0x10 build/XC32-PIC32_ETH_SK_ETH795/production/_ext/1840844407/NBNS.o
 .gnu.attributes
                0x00000160       0x10 build/XC32-PIC32_ETH_SK_ETH795/production/_ext/1840844407/Random.o
 .gnu.attributes
                0x00000170       0x10 build/XC32-PIC32_ETH_SK_ETH795/production/_ext/1840844407/Reboot.o
 .gnu.attributes
                0x00000180       0x10 build/XC32-PIC32_ETH_SK_ETH795/production/_ext/1840844407/StackTsk.o
 .gnu.attributes
                0x00000190       0x10 build/XC32-PIC32_ETH_SK_ETH795/production/_ext/1840844407/TCP.o
 .gnu.attributes
                0x000001a0       0x10 build/XC32-PIC32_ETH_SK_ETH795/production/_ext/1840844407/Telnet.o
 .gnu.attributes
                0x000001b0       0x10 build/XC32-PIC32_ETH_SK_ETH795/production/_ext/1840844407/Tick.o
 .gnu.attributes
                0x000001c0       0x10 build/XC32-PIC32_ETH_SK_ETH795/production/_ext/1840844407/UART.o
 .gnu.attributes
                0x000001d0       0x10 build/XC32-PIC32_ETH_SK_ETH795/production/_ext/1840844407/UDP.o
 .gnu.attributes
                0x000001e0       0x10 build/XC32-PIC32_ETH_SK_ETH795/production/_ext/1360937237/Main.o
 .gnu.attributes
                0x000001f0       0x10 build/XC32-PIC32_ETH_SK_ETH795/production/_ext/1360937237/dmx.o
 .gnu.attributes
                0x00000200       0x10 build/XC32-PIC32_ETH_SK_ETH795/production/_ext/1360937237/gva_dmx.o
 .gnu.attributes
                0x00000210       0x10 build/XC32-PIC32_ETH_SK_ETH795/production/_ext/1360937237/Ping.o
 .gnu.attributes
                0x00000220       0x10 build/XC32-PIC32_ETH_SK_ETH795/production/_ext/1360937237/HTTPApp.o
 .gnu.attributes
                0x00000230       0x10 build/XC32-PIC32_ETH_SK_ETH795/production/_ext/1360937237/artnet.o
 .gnu.attributes
                0x00000240       0x10 c:/program files/microchip/xc32/v1.31/bin/../lib/gcc/pic32mx/4.5.2/../../../../pic32mx/lib\libmchp_peripheral.a(read_core_timer_lib.o)
 .gnu.attributes
                0x00000250       0x10 c:/program files/microchip/xc32/v1.31/bin/../lib/gcc/pic32mx/4.5.2/../../../../pic32mx/lib\libmchp_peripheral_32MX795F512L.a(eth_ack_packet_lib.o)
 .gnu.attributes
                0x00000260       0x10 c:/program files/microchip/xc32/v1.31/bin/../lib/gcc/pic32mx/4.5.2/../../../../pic32mx/lib\libmchp_peripheral_32MX795F512L.a(eth_descriptors_add_lib.o)
 .gnu.attributes
                0x00000270       0x10 c:/program files/microchip/xc32/v1.31/bin/../lib/gcc/pic32mx/4.5.2/../../../../pic32mx/lib\libmchp_peripheral_32MX795F512L.a(eth_init_lib.o)
 .gnu.attributes
                0x00000280       0x10 c:/program files/microchip/xc32/v1.31/bin/../lib/gcc/pic32mx/4.5.2/../../../../pic32mx/lib\libmchp_peripheral_32MX795F512L.a(eth_mac_open_lib.o)
 .gnu.attributes
                0x00000290       0x10 c:/program files/microchip/xc32/v1.31/bin/../lib/gcc/pic32mx/4.5.2/../../../../pic32mx/lib\libmchp_peripheral_32MX795F512L.a(eth_mac_set_address_max_lib.o)
 .gnu.attributes
                0x000002a0       0x10 c:/program files/microchip/xc32/v1.31/bin/../lib/gcc/pic32mx/4.5.2/../../../../pic32mx/lib\libmchp_peripheral_32MX795F512L.a(eth_rx_buffers_append_lib.o)
 .gnu.attributes
                0x000002b0       0x10 c:/program files/microchip/xc32/v1.31/bin/../lib/gcc/pic32mx/4.5.2/../../../../pic32mx/lib\libmchp_peripheral_32MX795F512L.a(eth_rx_filters_lib.o)
 .gnu.attributes
                0x000002c0       0x10 c:/program files/microchip/xc32/v1.31/bin/../lib/gcc/pic32mx/4.5.2/../../../../pic32mx/lib\libmchp_peripheral_32MX795F512L.a(eth_rx_get_packet_lib.o)
 .gnu.attributes
                0x000002d0       0x10 c:/program files/microchip/xc32/v1.31/bin/../lib/gcc/pic32mx/4.5.2/../../../../pic32mx/lib\libmchp_peripheral_32MX795F512L.a(eth_rx_set_buffer_size_lib.o)
 .gnu.attributes
                0x000002e0       0x10 c:/program files/microchip/xc32/v1.31/bin/../lib/gcc/pic32mx/4.5.2/../../../../pic32mx/lib\libmchp_peripheral_32MX795F512L.a(eth_tx_packet_lib.o)
 .gnu.attributes
                0x000002f0       0x10 c:/program files/microchip/xc32/v1.31/bin/../lib/gcc/pic32mx/4.5.2/../../../../pic32mx/lib\libmchp_peripheral_32MX795F512L.a(_eth_append_busy_list_lib.o)
 .gnu.attributes
                0x00000300       0x10 c:/program files/microchip/xc32/v1.31/bin/../lib/gcc/pic32mx/4.5.2/../../../../pic32mx/lib\libmchp_peripheral_32MX795F512L.a(eth_miim_access.o)
 .gnu.attributes
                0x00000310       0x10 c:/program files/microchip/xc32/v1.31/bin/../lib/gcc/pic32mx/4.5.2/../../../../pic32mx/lib\libmchp_peripheral_32MX795F512L.a(soft_reset_lib.o)
 .gnu.attributes
                0x00000320       0x10 c:/program files/microchip/xc32/v1.31/bin/../lib/gcc/pic32mx/4.5.2/../../../../pic32mx/lib\libmchp_peripheral_32MX795F512L.a(pcache.o)
 .gnu.attributes
                0x00000330       0x10 c:/program files/microchip/xc32/v1.31/bin/../lib/gcc/pic32mx/4.5.2/../../../../pic32mx/lib\libmchp_peripheral_32MX795F512L.a(int_disable_interrupts_lib.o)
 .gnu.attributes
                0x00000340       0x10 c:/program files/microchip/xc32/v1.31/bin/../lib/gcc/pic32mx/4.5.2/../../../../pic32mx/lib\libmchp_peripheral_32MX795F512L.a(int_restore_interrupts_lib.o)
 .gnu.attributes
                0x00000350       0x10 c:/program files/microchip/xc32/v1.31/bin/../lib/gcc/pic32mx/4.5.2/../../../../pic32mx/lib\libmchp_peripheral_32MX795F512L.a(int_enable_mv_int_lib.o)
 .gnu.attributes
                0x00000360       0x10 c:/program files/microchip/xc32/v1.31/bin/../lib/gcc/pic32mx/4.5.2/../../../../pic32mx/lib\libmchp_peripheral_32MX795F512L.a(int_tbl_lib.o)
 .gnu.attributes
                0x00000370       0x10 c:/program files/microchip/xc32/v1.31/bin/../lib/gcc/pic32mx/4.5.2/../../../../pic32mx/lib\libmchp_peripheral_32MX795F512L.a(port_set_pins_digital_in_lib.o)
 .gnu.attributes
                0x00000380       0x10 c:/program files/microchip/xc32/v1.31/bin/../lib/gcc/pic32mx/4.5.2/../../../../pic32mx/lib\libmchp_peripheral_32MX795F512L.a(port_set_pins_digital_out_lib.o)
 .gnu.attributes
                0x00000390       0x10 c:/program files/microchip/xc32/v1.31/bin/../lib/gcc/pic32mx/4.5.2/../../../../pic32mx/lib\libmchp_peripheral_32MX795F512L.a(_ports_tbl_libp.o)
 .gnu.attributes
                0x000003a0       0x10 c:/program files/microchip/xc32/v1.31/bin/../lib/gcc/pic32mx/4.5.2/../../../../pic32mx/lib\libmchp_peripheral_32MX795F512L.a(int_enable_interrupts_lib.o)
 .gnu.attributes
                0x000003b0       0x10 c:/program files/microchip/xc32/v1.31/bin/../lib/gcc/pic32mx/4.5.2\libgcc.a(_udivdi3.o)
 .gnu.attributes
                0x000003c0       0x10 c:/program files/microchip/xc32/v1.31/bin/../lib/gcc/pic32mx/4.5.2\libgcc.a(_umoddi3.o)
 .gnu.attributes
                0x000003d0       0x10 c:/program files/microchip/xc32/v1.31/bin/../lib/gcc/pic32mx/4.5.2/../../../../pic32mx/lib\libpic32.a(default-bootstrap-exception-handler.o)
 .gnu.attributes
                0x000003e0       0x10 c:/program files/microchip/xc32/v1.31/bin/../lib/gcc/pic32mx/4.5.2/../../../../pic32mx/lib\libpic32.a(default-on-reset.o)
 .gnu.attributes
                0x000003f0       0x10 c:/program files/microchip/xc32/v1.31/bin/../lib/gcc/pic32mx/4.5.2/../../../../pic32mx/lib\libpic32.a(default-on-bootstrap.o)
 .gnu.attributes
                0x00000400       0x10 c:/program files/microchip/xc32/v1.31/bin/../lib/gcc/pic32mx/4.5.2/../../../../pic32mx/lib\libpic32.a(defaultinterrupt.o)
 .gnu.attributes
                0x00000410       0x10 c:/program files/microchip/xc32/v1.31/bin/../lib/gcc/pic32mx/4.5.2/../../../../pic32mx/lib\libc.a(atol.o)
 .gnu.attributes
                0x00000420       0x10 c:/program files/microchip/xc32/v1.31/bin/../lib/gcc/pic32mx/4.5.2/../../../../pic32mx/lib\libc.a(calloc.o)
 .gnu.attributes
                0x00000430       0x10 c:/program files/microchip/xc32/v1.31/bin/../lib/gcc/pic32mx/4.5.2/../../../../pic32mx/lib\libc.a(ctype.o)
 .gnu.attributes
                0x00000440       0x10 c:/program files/microchip/xc32/v1.31/bin/../lib/gcc/pic32mx/4.5.2/../../../../pic32mx/lib\libc.a(malloc.o)
 .gnu.attributes
                0x00000450       0x10 c:/program files/microchip/xc32/v1.31/bin/../lib/gcc/pic32mx/4.5.2/../../../../pic32mx/lib\libc.a(strncpy.o)
 .gnu.attributes
                0x00000460       0x10 c:/program files/microchip/xc32/v1.31/bin/../lib/gcc/pic32mx/4.5.2/../../../../pic32mx/lib\libpic32.a(sbrk.o)
 .gnu.attributes
                0x00000470       0x10 c:/program files/microchip/xc32/v1.31/bin/../lib/gcc/pic32mx/4.5.2/../../../../pic32mx/lib\libpic32.a(errno.o)
LOAD c:/program files/microchip/xc32/v1.31/bin/../lib/gcc/pic32mx/4.5.2\libgcc.a
START GROUP
LOAD c:/program files/microchip/xc32/v1.31/bin/../lib/gcc/pic32mx/4.5.2/../../../../pic32mx/lib\libpic32.a
LOAD c:/program files/microchip/xc32/v1.31/bin/../lib/gcc/pic32mx/4.5.2/../../../../pic32mx/lib\libdebug.a
LOAD c:/program files/microchip/xc32/v1.31/bin/../lib/gcc/pic32mx/4.5.2/../../../../pic32mx/lib\libm.a
LOAD c:/program files/microchip/xc32/v1.31/bin/../lib/gcc/pic32mx/4.5.2/../../../../pic32mx/lib\libe.a
LOAD c:/program files/microchip/xc32/v1.31/bin/../lib/gcc/pic32mx/4.5.2/../../../../pic32mx/lib\libdsp.a
LOAD c:/program files/microchip/xc32/v1.31/bin/../lib/gcc/pic32mx/4.5.2\libgcc.a
LOAD c:/program files/microchip/xc32/v1.31/bin/../lib/gcc/pic32mx/4.5.2/../../../../pic32mx/lib\libpic32.a
LOAD c:/program files/microchip/xc32/v1.31/bin/../lib/gcc/pic32mx/4.5.2/../../../../pic32mx/lib\libmchp_peripheral.a
LOAD c:/program files/microchip/xc32/v1.31/bin/../lib/gcc/pic32mx/4.5.2/../../../../pic32mx/lib\libmchp_peripheral_32MX795F512L.a
LOAD c:/program files/microchip/xc32/v1.31/bin/../lib/gcc/pic32mx/4.5.2/../../../../pic32mx/lib\libc.a
LOAD c:/program files/microchip/xc32/v1.31/bin/../lib/gcc/pic32mx/4.5.2/../../../../pic32mx/lib\libpic32.a
END GROUP
LOAD c:/program files/microchip/xc32/v1.31/bin/../lib/gcc/pic32mx/4.5.2\libgcc.a
LOAD c:/program files/microchip/xc32/v1.31/bin/../lib/gcc/pic32mx/4.5.2/../../../../pic32mx/lib\debug-exception-return.o
OUTPUT(dist/XC32-PIC32_ETH_SK_ETH795/production/MPLAB.X.production.elf elf32-tradlittlemips)
LOAD stack
LOAD data_init

.reginfo        0x00000000       0x18
 .reginfo       0x00000000       0x18 c:/program files/microchip/xc32/v1.31/bin/../lib/gcc/pic32mx/4.5.2/../../../../pic32mx/lib/./proc/32MX795F512L/crt0_mips32r2.o

.stack          0xa000c4f0      0x800
 .stack         0xa000c4f0      0x800 stack

.bss            0xa0000434     0x8178
 .bss           0xa0000434     0x4224 build/XC32-PIC32_ETH_SK_ETH795/production/_ext/1840844407/TCP.o
 .bss           0xa0004658     0x3cf8 build/XC32-PIC32_ETH_SK_ETH795/production/_ext/1840844407/ETHPIC32IntMac.o
 .bss           0xa0008350       0xf0 build/XC32-PIC32_ETH_SK_ETH795/production/_ext/1360937237/artnet.o
 .bss           0xa0008440       0xc0 build/XC32-PIC32_ETH_SK_ETH795/production/_ext/1360937237/HTTPApp.o
 .bss           0xa0008500       0x78 build/XC32-PIC32_ETH_SK_ETH795/production/_ext/1840844407/MPFS2.o
 .bss           0xa0008578       0x34 build/XC32-PIC32_ETH_SK_ETH795/production/_ext/1840844407/DHCP.o

.data           0xa00085ac       0x34
 .data          0xa00085ac       0x34 build/XC32-PIC32_ETH_SK_ETH795/production/_ext/1840844407/DynDNS.o

.bss            0xa00085e0       0x6c
 .bss           0xa00085e0       0x1c c:/program files/microchip/xc32/v1.31/bin/../lib/gcc/pic32mx/4.5.2/../../../../pic32mx/lib\libpic32.a(sbrk.o)
 .bss           0xa00085fc       0x18 build/XC32-PIC32_ETH_SK_ETH795/production/_ext/1840844407/ARP.o
 .bss           0xa0008614       0x10 build/XC32-PIC32_ETH_SK_ETH795/production/_ext/1840844407/DynDNS.o
 .bss           0xa0008624       0x10 c:/program files/microchip/xc32/v1.31/bin/../lib/gcc/pic32mx/4.5.2/../../../../pic32mx/lib\libc.a(malloc.o)
                0xa0008624                __allocs
 .bss           0xa0008634        0xc build/XC32-PIC32_ETH_SK_ETH795/production/_ext/1840844407/DNS.o
 .bss           0xa0008640        0xc build/XC32-PIC32_ETH_SK_ETH795/production/_ext/1840844407/ICMP.o

.bss.SentTransactionID.22982
                0xa000864c        0x4
 .bss.SentTransactionID.22982
                0xa000864c        0x4 build/XC32-PIC32_ETH_SK_ETH795/production/_ext/1840844407/DNS.o

.bss.NextPort   0xa0008650        0x2
 .bss.NextPort  0xa0008650        0x2 build/XC32-PIC32_ETH_SK_ETH795/production/_ext/1840844407/TCP.o

.bss.NextPort.22954
                0xa0008652        0x2
 .bss.NextPort.22954
                0xa0008652        0x2 build/XC32-PIC32_ETH_SK_ETH795/production/_ext/1840844407/UDP.o

.bss%z1         0x00000000        0x0
 .bss           0x00000000        0x0 c:/program files/microchip/xc32/v1.31/bin/../lib/gcc/pic32mx/4.5.2/../../../../pic32mx/lib\debug-exception-return.o

.data%z2        0x00000000        0x0
 .data          0x00000000        0x0 c:/program files/microchip/xc32/v1.31/bin/../lib/gcc/pic32mx/4.5.2/../../../../pic32mx/lib\debug-exception-return.o

.bss%z3         0x00000000        0x0
 .bss           0x00000000        0x0 c:/program files/microchip/xc32/v1.31/bin/../lib/gcc/pic32mx/4.5.2/../../../../pic32mx/lib\libpic32.a(errno.o)

.data%z4        0x00000000        0x0
 .data          0x00000000        0x0 c:/program files/microchip/xc32/v1.31/bin/../lib/gcc/pic32mx/4.5.2/../../../../pic32mx/lib\libpic32.a(errno.o)

.data%z5        0x00000000        0x0
 .data          0x00000000        0x0 c:/program files/microchip/xc32/v1.31/bin/../lib/gcc/pic32mx/4.5.2/../../../../pic32mx/lib\libpic32.a(sbrk.o)

.bss%z6         0x00000000        0x0
 .bss           0x00000000        0x0 c:/program files/microchip/xc32/v1.31/bin/../lib/gcc/pic32mx/4.5.2/../../../../pic32mx/lib\libc.a(strncpy.o)

.data%z7        0x00000000        0x0
 .data          0x00000000        0x0 c:/program files/microchip/xc32/v1.31/bin/../lib/gcc/pic32mx/4.5.2/../../../../pic32mx/lib\libc.a(strncpy.o)

.data%z8        0x00000000        0x0
 .data          0x00000000        0x0 c:/program files/microchip/xc32/v1.31/bin/../lib/gcc/pic32mx/4.5.2/../../../../pic32mx/lib\libc.a(malloc.o)

.bss%z9         0x00000000        0x0
 .bss           0x00000000        0x0 c:/program files/microchip/xc32/v1.31/bin/../lib/gcc/pic32mx/4.5.2/../../../../pic32mx/lib\libc.a(ctype.o)

.data%z10       0x00000000        0x0
 .data          0x00000000        0x0 c:/program files/microchip/xc32/v1.31/bin/../lib/gcc/pic32mx/4.5.2/../../../../pic32mx/lib\libc.a(ctype.o)

.bss%z11        0x00000000        0x0
 .bss           0x00000000        0x0 c:/program files/microchip/xc32/v1.31/bin/../lib/gcc/pic32mx/4.5.2/../../../../pic32mx/lib\libc.a(calloc.o)

.data%z12       0x00000000        0x0
 .data          0x00000000        0x0 c:/program files/microchip/xc32/v1.31/bin/../lib/gcc/pic32mx/4.5.2/../../../../pic32mx/lib\libc.a(calloc.o)

.bss%z13        0x00000000        0x0
 .bss           0x00000000        0x0 c:/program files/microchip/xc32/v1.31/bin/../lib/gcc/pic32mx/4.5.2/../../../../pic32mx/lib\libc.a(atol.o)

.data%z14       0x00000000        0x0
 .data          0x00000000        0x0 c:/program files/microchip/xc32/v1.31/bin/../lib/gcc/pic32mx/4.5.2/../../../../pic32mx/lib\libc.a(atol.o)

.bss%z15        0x00000000        0x0
 .bss           0x00000000        0x0 c:/program files/microchip/xc32/v1.31/bin/../lib/gcc/pic32mx/4.5.2/../../../../pic32mx/lib\libpic32.a(defaultinterrupt.o)

.data%z16       0x00000000        0x0
 .data          0x00000000        0x0 c:/program files/microchip/xc32/v1.31/bin/../lib/gcc/pic32mx/4.5.2/../../../../pic32mx/lib\libpic32.a(defaultinterrupt.o)

.bss%z17        0x00000000        0x0
 .bss           0x00000000        0x0 c:/program files/microchip/xc32/v1.31/bin/../lib/gcc/pic32mx/4.5.2/../../../../pic32mx/lib\libpic32.a(vector63.o)

.data%z18       0x00000000        0x0
 .data          0x00000000        0x0 c:/program files/microchip/xc32/v1.31/bin/../lib/gcc/pic32mx/4.5.2/../../../../pic32mx/lib\libpic32.a(vector63.o)

.bss%z19        0x00000000        0x0
 .bss           0x00000000        0x0 c:/program files/microchip/xc32/v1.31/bin/../lib/gcc/pic32mx/4.5.2/../../../../pic32mx/lib\libpic32.a(vector62.o)

.data%z20       0x00000000        0x0
 .data          0x00000000        0x0 c:/program files/microchip/xc32/v1.31/bin/../lib/gcc/pic32mx/4.5.2/../../../../pic32mx/lib\libpic32.a(vector62.o)

.bss%z21        0x00000000        0x0
 .bss           0x00000000        0x0 c:/program files/microchip/xc32/v1.31/bin/../lib/gcc/pic32mx/4.5.2/../../../../pic32mx/lib\libpic32.a(vector61.o)

.data%z22       0x00000000        0x0
 .data          0x00000000        0x0 c:/program files/microchip/xc32/v1.31/bin/../lib/gcc/pic32mx/4.5.2/../../../../pic32mx/lib\libpic32.a(vector61.o)

.bss%z23        0x00000000        0x0
 .bss           0x00000000        0x0 c:/program files/microchip/xc32/v1.31/bin/../lib/gcc/pic32mx/4.5.2/../../../../pic32mx/lib\libpic32.a(vector60.o)

.data%z24       0x00000000        0x0
 .data          0x00000000        0x0 c:/program files/microchip/xc32/v1.31/bin/../lib/gcc/pic32mx/4.5.2/../../../../pic32mx/lib\libpic32.a(vector60.o)

.bss%z25        0x00000000        0x0
 .bss           0x00000000        0x0 c:/program files/microchip/xc32/v1.31/bin/../lib/gcc/pic32mx/4.5.2/../../../../pic32mx/lib\libpic32.a(vector59.o)

.data%z26       0x00000000        0x0
 .data          0x00000000        0x0 c:/program files/microchip/xc32/v1.31/bin/../lib/gcc/pic32mx/4.5.2/../../../../pic32mx/lib\libpic32.a(vector59.o)

.bss%z27        0x00000000        0x0
 .bss           0x00000000        0x0 c:/program files/microchip/xc32/v1.31/bin/../lib/gcc/pic32mx/4.5.2/../../../../pic32mx/lib\libpic32.a(vector58.o)

.data%z28       0x00000000        0x0
 .data          0x00000000        0x0 c:/program files/microchip/xc32/v1.31/bin/../lib/gcc/pic32mx/4.5.2/../../../../pic32mx/lib\libpic32.a(vector58.o)

.bss%z29        0x00000000        0x0
 .bss           0x00000000        0x0 c:/program files/microchip/xc32/v1.31/bin/../lib/gcc/pic32mx/4.5.2/../../../../pic32mx/lib\libpic32.a(vector57.o)

.data%z30       0x00000000        0x0
 .data          0x00000000        0x0 c:/program files/microchip/xc32/v1.31/bin/../lib/gcc/pic32mx/4.5.2/../../../../pic32mx/lib\libpic32.a(vector57.o)

.bss%z31        0x00000000        0x0
 .bss           0x00000000        0x0 c:/program files/microchip/xc32/v1.31/bin/../lib/gcc/pic32mx/4.5.2/../../../../pic32mx/lib\libpic32.a(vector56.o)

.data%z32       0x00000000        0x0
 .data          0x00000000        0x0 c:/program files/microchip/xc32/v1.31/bin/../lib/gcc/pic32mx/4.5.2/../../../../pic32mx/lib\libpic32.a(vector56.o)

.bss%z33        0x00000000        0x0
 .bss           0x00000000        0x0 c:/program files/microchip/xc32/v1.31/bin/../lib/gcc/pic32mx/4.5.2/../../../../pic32mx/lib\libpic32.a(vector55.o)

.data%z34       0x00000000        0x0
 .data          0x00000000        0x0 c:/program files/microchip/xc32/v1.31/bin/../lib/gcc/pic32mx/4.5.2/../../../../pic32mx/lib\libpic32.a(vector55.o)

.bss%z35        0x00000000        0x0
 .bss           0x00000000        0x0 c:/program files/microchip/xc32/v1.31/bin/../lib/gcc/pic32mx/4.5.2/../../../../pic32mx/lib\libpic32.a(vector54.o)

.data%z36       0x00000000        0x0
 .data          0x00000000        0x0 c:/program files/microchip/xc32/v1.31/bin/../lib/gcc/pic32mx/4.5.2/../../../../pic32mx/lib\libpic32.a(vector54.o)

.bss%z37        0x00000000        0x0
 .bss           0x00000000        0x0 c:/program files/microchip/xc32/v1.31/bin/../lib/gcc/pic32mx/4.5.2/../../../../pic32mx/lib\libpic32.a(vector53.o)

.data%z38       0x00000000        0x0
 .data          0x00000000        0x0 c:/program files/microchip/xc32/v1.31/bin/../lib/gcc/pic32mx/4.5.2/../../../../pic32mx/lib\libpic32.a(vector53.o)

.bss%z39        0x00000000        0x0
 .bss           0x00000000        0x0 c:/program files/microchip/xc32/v1.31/bin/../lib/gcc/pic32mx/4.5.2/../../../../pic32mx/lib\libpic32.a(vector52.o)

.data%z40       0x00000000        0x0
 .data          0x00000000        0x0 c:/program files/microchip/xc32/v1.31/bin/../lib/gcc/pic32mx/4.5.2/../../../../pic32mx/lib\libpic32.a(vector52.o)

.bss%z41        0x00000000        0x0
 .bss           0x00000000        0x0 c:/program files/microchip/xc32/v1.31/bin/../lib/gcc/pic32mx/4.5.2/../../../../pic32mx/lib\libpic32.a(vector51.o)

.data%z42       0x00000000        0x0
 .data          0x00000000        0x0 c:/program files/microchip/xc32/v1.31/bin/../lib/gcc/pic32mx/4.5.2/../../../../pic32mx/lib\libpic32.a(vector51.o)

.bss%z43        0x00000000        0x0
 .bss           0x00000000        0x0 c:/program files/microchip/xc32/v1.31/bin/../lib/gcc/pic32mx/4.5.2/../../../../pic32mx/lib\libpic32.a(vector50.o)

.data%z44       0x00000000        0x0
 .data          0x00000000        0x0 c:/program files/microchip/xc32/v1.31/bin/../lib/gcc/pic32mx/4.5.2/../../../../pic32mx/lib\libpic32.a(vector50.o)

.bss%z45        0x00000000        0x0
 .bss           0x00000000        0x0 c:/program files/microchip/xc32/v1.31/bin/../lib/gcc/pic32mx/4.5.2/../../../../pic32mx/lib\libpic32.a(vector49.o)

.data%z46       0x00000000        0x0
 .data          0x00000000        0x0 c:/program files/microchip/xc32/v1.31/bin/../lib/gcc/pic32mx/4.5.2/../../../../pic32mx/lib\libpic32.a(vector49.o)

.bss%z47        0x00000000        0x0
 .bss           0x00000000        0x0 c:/program files/microchip/xc32/v1.31/bin/../lib/gcc/pic32mx/4.5.2/../../../../pic32mx/lib\libpic32.a(vector48.o)

.data%z48       0x00000000        0x0
 .data          0x00000000        0x0 c:/program files/microchip/xc32/v1.31/bin/../lib/gcc/pic32mx/4.5.2/../../../../pic32mx/lib\libpic32.a(vector48.o)

.bss%z49        0x00000000        0x0
 .bss           0x00000000        0x0 c:/program files/microchip/xc32/v1.31/bin/../lib/gcc/pic32mx/4.5.2/../../../../pic32mx/lib\libpic32.a(vector47.o)

.data%z50       0x00000000        0x0
 .data          0x00000000        0x0 c:/program files/microchip/xc32/v1.31/bin/../lib/gcc/pic32mx/4.5.2/../../../../pic32mx/lib\libpic32.a(vector47.o)

.bss%z51        0x00000000        0x0
 .bss           0x00000000        0x0 c:/program files/microchip/xc32/v1.31/bin/../lib/gcc/pic32mx/4.5.2/../../../../pic32mx/lib\libpic32.a(vector46.o)

.data%z52       0x00000000        0x0
 .data          0x00000000        0x0 c:/program files/microchip/xc32/v1.31/bin/../lib/gcc/pic32mx/4.5.2/../../../../pic32mx/lib\libpic32.a(vector46.o)

.bss%z53        0x00000000        0x0
 .bss           0x00000000        0x0 c:/program files/microchip/xc32/v1.31/bin/../lib/gcc/pic32mx/4.5.2/../../../../pic32mx/lib\libpic32.a(vector45.o)

.data%z54       0x00000000        0x0
 .data          0x00000000        0x0 c:/program files/microchip/xc32/v1.31/bin/../lib/gcc/pic32mx/4.5.2/../../../../pic32mx/lib\libpic32.a(vector45.o)

.bss%z55        0x00000000        0x0
 .bss           0x00000000        0x0 c:/program files/microchip/xc32/v1.31/bin/../lib/gcc/pic32mx/4.5.2/../../../../pic32mx/lib\libpic32.a(vector44.o)

.data%z56       0x00000000        0x0
 .data          0x00000000        0x0 c:/program files/microchip/xc32/v1.31/bin/../lib/gcc/pic32mx/4.5.2/../../../../pic32mx/lib\libpic32.a(vector44.o)

.bss%z57        0x00000000        0x0
 .bss           0x00000000        0x0 c:/program files/microchip/xc32/v1.31/bin/../lib/gcc/pic32mx/4.5.2/../../../../pic32mx/lib\libpic32.a(vector43.o)

.data%z58       0x00000000        0x0
 .data          0x00000000        0x0 c:/program files/microchip/xc32/v1.31/bin/../lib/gcc/pic32mx/4.5.2/../../../../pic32mx/lib\libpic32.a(vector43.o)

.bss%z59        0x00000000        0x0
 .bss           0x00000000        0x0 c:/program files/microchip/xc32/v1.31/bin/../lib/gcc/pic32mx/4.5.2/../../../../pic32mx/lib\libpic32.a(vector42.o)

.data%z60       0x00000000        0x0
 .data          0x00000000        0x0 c:/program files/microchip/xc32/v1.31/bin/../lib/gcc/pic32mx/4.5.2/../../../../pic32mx/lib\libpic32.a(vector42.o)

.bss%z61        0x00000000        0x0
 .bss           0x00000000        0x0 c:/program files/microchip/xc32/v1.31/bin/../lib/gcc/pic32mx/4.5.2/../../../../pic32mx/lib\libpic32.a(vector41.o)

.data%z62       0x00000000        0x0
 .data          0x00000000        0x0 c:/program files/microchip/xc32/v1.31/bin/../lib/gcc/pic32mx/4.5.2/../../../../pic32mx/lib\libpic32.a(vector41.o)

.bss%z63        0x00000000        0x0
 .bss           0x00000000        0x0 c:/program files/microchip/xc32/v1.31/bin/../lib/gcc/pic32mx/4.5.2/../../../../pic32mx/lib\libpic32.a(vector40.o)

.data%z64       0x00000000        0x0
 .data          0x00000000        0x0 c:/program files/microchip/xc32/v1.31/bin/../lib/gcc/pic32mx/4.5.2/../../../../pic32mx/lib\libpic32.a(vector40.o)

.bss%z65        0x00000000        0x0
 .bss           0x00000000        0x0 c:/program files/microchip/xc32/v1.31/bin/../lib/gcc/pic32mx/4.5.2/../../../../pic32mx/lib\libpic32.a(vector39.o)

.data%z66       0x00000000        0x0
 .data          0x00000000        0x0 c:/program files/microchip/xc32/v1.31/bin/../lib/gcc/pic32mx/4.5.2/../../../../pic32mx/lib\libpic32.a(vector39.o)

.bss%z67        0x00000000        0x0
 .bss           0x00000000        0x0 c:/program files/microchip/xc32/v1.31/bin/../lib/gcc/pic32mx/4.5.2/../../../../pic32mx/lib\libpic32.a(vector38.o)

.data%z68       0x00000000        0x0
 .data          0x00000000        0x0 c:/program files/microchip/xc32/v1.31/bin/../lib/gcc/pic32mx/4.5.2/../../../../pic32mx/lib\libpic32.a(vector38.o)

.bss%z69        0x00000000        0x0
 .bss           0x00000000        0x0 c:/program files/microchip/xc32/v1.31/bin/../lib/gcc/pic32mx/4.5.2/../../../../pic32mx/lib\libpic32.a(vector37.o)

.data%z70       0x00000000        0x0
 .data          0x00000000        0x0 c:/program files/microchip/xc32/v1.31/bin/../lib/gcc/pic32mx/4.5.2/../../../../pic32mx/lib\libpic32.a(vector37.o)

.bss%z71        0x00000000        0x0
 .bss           0x00000000        0x0 c:/program files/microchip/xc32/v1.31/bin/../lib/gcc/pic32mx/4.5.2/../../../../pic32mx/lib\libpic32.a(vector36.o)

.data%z72       0x00000000        0x0
 .data          0x00000000        0x0 c:/program files/microchip/xc32/v1.31/bin/../lib/gcc/pic32mx/4.5.2/../../../../pic32mx/lib\libpic32.a(vector36.o)

.bss%z73        0x00000000        0x0
 .bss           0x00000000        0x0 c:/program files/microchip/xc32/v1.31/bin/../lib/gcc/pic32mx/4.5.2/../../../../pic32mx/lib\libpic32.a(vector35.o)

.data%z74       0x00000000        0x0
 .data          0x00000000        0x0 c:/program files/microchip/xc32/v1.31/bin/../lib/gcc/pic32mx/4.5.2/../../../../pic32mx/lib\libpic32.a(vector35.o)

.bss%z75        0x00000000        0x0
 .bss           0x00000000        0x0 c:/program files/microchip/xc32/v1.31/bin/../lib/gcc/pic32mx/4.5.2/../../../../pic32mx/lib\libpic32.a(vector34.o)

.data%z76       0x00000000        0x0
 .data          0x00000000        0x0 c:/program files/microchip/xc32/v1.31/bin/../lib/gcc/pic32mx/4.5.2/../../../../pic32mx/lib\libpic32.a(vector34.o)

.bss%z77        0x00000000        0x0
 .bss           0x00000000        0x0 c:/program files/microchip/xc32/v1.31/bin/../lib/gcc/pic32mx/4.5.2/../../../../pic32mx/lib\libpic32.a(vector33.o)

.data%z78       0x00000000        0x0
 .data          0x00000000        0x0 c:/program files/microchip/xc32/v1.31/bin/../lib/gcc/pic32mx/4.5.2/../../../../pic32mx/lib\libpic32.a(vector33.o)

.bss%z79        0x00000000        0x0
 .bss           0x00000000        0x0 c:/program files/microchip/xc32/v1.31/bin/../lib/gcc/pic32mx/4.5.2/../../../../pic32mx/lib\libpic32.a(vector32.o)

.data%z80       0x00000000        0x0
 .data          0x00000000        0x0 c:/program files/microchip/xc32/v1.31/bin/../lib/gcc/pic32mx/4.5.2/../../../../pic32mx/lib\libpic32.a(vector32.o)

.bss%z81        0x00000000        0x0
 .bss           0x00000000        0x0 c:/program files/microchip/xc32/v1.31/bin/../lib/gcc/pic32mx/4.5.2/../../../../pic32mx/lib\libpic32.a(vector31.o)

.data%z82       0x00000000        0x0
 .data          0x00000000        0x0 c:/program files/microchip/xc32/v1.31/bin/../lib/gcc/pic32mx/4.5.2/../../../../pic32mx/lib\libpic32.a(vector31.o)

.bss%z83        0x00000000        0x0
 .bss           0x00000000        0x0 c:/program files/microchip/xc32/v1.31/bin/../lib/gcc/pic32mx/4.5.2/../../../../pic32mx/lib\libpic32.a(vector30.o)

.data%z84       0x00000000        0x0
 .data          0x00000000        0x0 c:/program files/microchip/xc32/v1.31/bin/../lib/gcc/pic32mx/4.5.2/../../../../pic32mx/lib\libpic32.a(vector30.o)

.bss%z85        0x00000000        0x0
 .bss           0x00000000        0x0 c:/program files/microchip/xc32/v1.31/bin/../lib/gcc/pic32mx/4.5.2/../../../../pic32mx/lib\libpic32.a(vector29.o)

.data%z86       0x00000000        0x0
 .data          0x00000000        0x0 c:/program files/microchip/xc32/v1.31/bin/../lib/gcc/pic32mx/4.5.2/../../../../pic32mx/lib\libpic32.a(vector29.o)

.bss%z87        0x00000000        0x0
 .bss           0x00000000        0x0 c:/program files/microchip/xc32/v1.31/bin/../lib/gcc/pic32mx/4.5.2/../../../../pic32mx/lib\libpic32.a(vector28.o)

.data%z88       0x00000000        0x0
 .data          0x00000000        0x0 c:/program files/microchip/xc32/v1.31/bin/../lib/gcc/pic32mx/4.5.2/../../../../pic32mx/lib\libpic32.a(vector28.o)

.bss%z89        0x00000000        0x0
 .bss           0x00000000        0x0 c:/program files/microchip/xc32/v1.31/bin/../lib/gcc/pic32mx/4.5.2/../../../../pic32mx/lib\libpic32.a(vector27.o)

.data%z90       0x00000000        0x0
 .data          0x00000000        0x0 c:/program files/microchip/xc32/v1.31/bin/../lib/gcc/pic32mx/4.5.2/../../../../pic32mx/lib\libpic32.a(vector27.o)

.bss%z91        0x00000000        0x0
 .bss           0x00000000        0x0 c:/program files/microchip/xc32/v1.31/bin/../lib/gcc/pic32mx/4.5.2/../../../../pic32mx/lib\libpic32.a(vector26.o)

.data%z92       0x00000000        0x0
 .data          0x00000000        0x0 c:/program files/microchip/xc32/v1.31/bin/../lib/gcc/pic32mx/4.5.2/../../../../pic32mx/lib\libpic32.a(vector26.o)

.bss%z93        0x00000000        0x0
 .bss           0x00000000        0x0 c:/program files/microchip/xc32/v1.31/bin/../lib/gcc/pic32mx/4.5.2/../../../../pic32mx/lib\libpic32.a(vector25.o)

.data%z94       0x00000000        0x0
 .data          0x00000000        0x0 c:/program files/microchip/xc32/v1.31/bin/../lib/gcc/pic32mx/4.5.2/../../../../pic32mx/lib\libpic32.a(vector25.o)

.bss%z95        0x00000000        0x0
 .bss           0x00000000        0x0 c:/program files/microchip/xc32/v1.31/bin/../lib/gcc/pic32mx/4.5.2/../../../../pic32mx/lib\libpic32.a(vector24.o)

.data%z96       0x00000000        0x0
 .data          0x00000000        0x0 c:/program files/microchip/xc32/v1.31/bin/../lib/gcc/pic32mx/4.5.2/../../../../pic32mx/lib\libpic32.a(vector24.o)

.bss%z97        0x00000000        0x0
 .bss           0x00000000        0x0 c:/program files/microchip/xc32/v1.31/bin/../lib/gcc/pic32mx/4.5.2/../../../../pic32mx/lib\libpic32.a(vector23.o)

.data%z98       0x00000000        0x0
 .data          0x00000000        0x0 c:/program files/microchip/xc32/v1.31/bin/../lib/gcc/pic32mx/4.5.2/../../../../pic32mx/lib\libpic32.a(vector23.o)

.bss%z99        0x00000000        0x0
 .bss           0x00000000        0x0 c:/program files/microchip/xc32/v1.31/bin/../lib/gcc/pic32mx/4.5.2/../../../../pic32mx/lib\libpic32.a(vector22.o)

.data%z100      0x00000000        0x0
 .data          0x00000000        0x0 c:/program files/microchip/xc32/v1.31/bin/../lib/gcc/pic32mx/4.5.2/../../../../pic32mx/lib\libpic32.a(vector22.o)

.bss%z101       0x00000000        0x0
 .bss           0x00000000        0x0 c:/program files/microchip/xc32/v1.31/bin/../lib/gcc/pic32mx/4.5.2/../../../../pic32mx/lib\libpic32.a(vector21.o)

.data%z102      0x00000000        0x0
 .data          0x00000000        0x0 c:/program files/microchip/xc32/v1.31/bin/../lib/gcc/pic32mx/4.5.2/../../../../pic32mx/lib\libpic32.a(vector21.o)

.bss%z103       0x00000000        0x0
 .bss           0x00000000        0x0 c:/program files/microchip/xc32/v1.31/bin/../lib/gcc/pic32mx/4.5.2/../../../../pic32mx/lib\libpic32.a(vector20.o)

.data%z104      0x00000000        0x0
 .data          0x00000000        0x0 c:/program files/microchip/xc32/v1.31/bin/../lib/gcc/pic32mx/4.5.2/../../../../pic32mx/lib\libpic32.a(vector20.o)

.bss%z105       0x00000000        0x0
 .bss           0x00000000        0x0 c:/program files/microchip/xc32/v1.31/bin/../lib/gcc/pic32mx/4.5.2/../../../../pic32mx/lib\libpic32.a(vector19.o)

.data%z106      0x00000000        0x0
 .data          0x00000000        0x0 c:/program files/microchip/xc32/v1.31/bin/../lib/gcc/pic32mx/4.5.2/../../../../pic32mx/lib\libpic32.a(vector19.o)

.bss%z107       0x00000000        0x0
 .bss           0x00000000        0x0 c:/program files/microchip/xc32/v1.31/bin/../lib/gcc/pic32mx/4.5.2/../../../../pic32mx/lib\libpic32.a(vector18.o)

.data%z108      0x00000000        0x0
 .data          0x00000000        0x0 c:/program files/microchip/xc32/v1.31/bin/../lib/gcc/pic32mx/4.5.2/../../../../pic32mx/lib\libpic32.a(vector18.o)

.bss%z109       0x00000000        0x0
 .bss           0x00000000        0x0 c:/program files/microchip/xc32/v1.31/bin/../lib/gcc/pic32mx/4.5.2/../../../../pic32mx/lib\libpic32.a(vector17.o)

.data%z110      0x00000000        0x0
 .data          0x00000000        0x0 c:/program files/microchip/xc32/v1.31/bin/../lib/gcc/pic32mx/4.5.2/../../../../pic32mx/lib\libpic32.a(vector17.o)

.bss%z111       0x00000000        0x0
 .bss           0x00000000        0x0 c:/program files/microchip/xc32/v1.31/bin/../lib/gcc/pic32mx/4.5.2/../../../../pic32mx/lib\libpic32.a(vector16.o)

.data%z112      0x00000000        0x0
 .data          0x00000000        0x0 c:/program files/microchip/xc32/v1.31/bin/../lib/gcc/pic32mx/4.5.2/../../../../pic32mx/lib\libpic32.a(vector16.o)

.bss%z113       0x00000000        0x0
 .bss           0x00000000        0x0 c:/program files/microchip/xc32/v1.31/bin/../lib/gcc/pic32mx/4.5.2/../../../../pic32mx/lib\libpic32.a(vector15.o)

.data%z114      0x00000000        0x0
 .data          0x00000000        0x0 c:/program files/microchip/xc32/v1.31/bin/../lib/gcc/pic32mx/4.5.2/../../../../pic32mx/lib\libpic32.a(vector15.o)

.bss%z115       0x00000000        0x0
 .bss           0x00000000        0x0 c:/program files/microchip/xc32/v1.31/bin/../lib/gcc/pic32mx/4.5.2/../../../../pic32mx/lib\libpic32.a(vector14.o)

.data%z116      0x00000000        0x0
 .data          0x00000000        0x0 c:/program files/microchip/xc32/v1.31/bin/../lib/gcc/pic32mx/4.5.2/../../../../pic32mx/lib\libpic32.a(vector14.o)

.bss%z117       0x00000000        0x0
 .bss           0x00000000        0x0 c:/program files/microchip/xc32/v1.31/bin/../lib/gcc/pic32mx/4.5.2/../../../../pic32mx/lib\libpic32.a(vector13.o)

.data%z118      0x00000000        0x0
 .data          0x00000000        0x0 c:/program files/microchip/xc32/v1.31/bin/../lib/gcc/pic32mx/4.5.2/../../../../pic32mx/lib\libpic32.a(vector13.o)

.bss%z119       0x00000000        0x0
 .bss           0x00000000        0x0 c:/program files/microchip/xc32/v1.31/bin/../lib/gcc/pic32mx/4.5.2/../../../../pic32mx/lib\libpic32.a(vector12.o)

.data%z120      0x00000000        0x0
 .data          0x00000000        0x0 c:/program files/microchip/xc32/v1.31/bin/../lib/gcc/pic32mx/4.5.2/../../../../pic32mx/lib\libpic32.a(vector12.o)

.bss%z121       0x00000000        0x0
 .bss           0x00000000        0x0 c:/program files/microchip/xc32/v1.31/bin/../lib/gcc/pic32mx/4.5.2/../../../../pic32mx/lib\libpic32.a(vector11.o)

.data%z122      0x00000000        0x0
 .data          0x00000000        0x0 c:/program files/microchip/xc32/v1.31/bin/../lib/gcc/pic32mx/4.5.2/../../../../pic32mx/lib\libpic32.a(vector11.o)

.bss%z123       0x00000000        0x0
 .bss           0x00000000        0x0 c:/program files/microchip/xc32/v1.31/bin/../lib/gcc/pic32mx/4.5.2/../../../../pic32mx/lib\libpic32.a(vector10.o)

.data%z124      0x00000000        0x0
 .data          0x00000000        0x0 c:/program files/microchip/xc32/v1.31/bin/../lib/gcc/pic32mx/4.5.2/../../../../pic32mx/lib\libpic32.a(vector10.o)

.bss%z125       0x00000000        0x0
 .bss           0x00000000        0x0 c:/program files/microchip/xc32/v1.31/bin/../lib/gcc/pic32mx/4.5.2/../../../../pic32mx/lib\libpic32.a(vector9.o)

.data%z126      0x00000000        0x0
 .data          0x00000000        0x0 c:/program files/microchip/xc32/v1.31/bin/../lib/gcc/pic32mx/4.5.2/../../../../pic32mx/lib\libpic32.a(vector9.o)

.bss%z127       0x00000000        0x0
 .bss           0x00000000        0x0 c:/program files/microchip/xc32/v1.31/bin/../lib/gcc/pic32mx/4.5.2/../../../../pic32mx/lib\libpic32.a(vector8.o)

.data%z128      0x00000000        0x0
 .data          0x00000000        0x0 c:/program files/microchip/xc32/v1.31/bin/../lib/gcc/pic32mx/4.5.2/../../../../pic32mx/lib\libpic32.a(vector8.o)

.bss%z129       0x00000000        0x0
 .bss           0x00000000        0x0 c:/program files/microchip/xc32/v1.31/bin/../lib/gcc/pic32mx/4.5.2/../../../../pic32mx/lib\libpic32.a(vector7.o)

.data%z130      0x00000000        0x0
 .data          0x00000000        0x0 c:/program files/microchip/xc32/v1.31/bin/../lib/gcc/pic32mx/4.5.2/../../../../pic32mx/lib\libpic32.a(vector7.o)

.bss%z131       0x00000000        0x0
 .bss           0x00000000        0x0 c:/program files/microchip/xc32/v1.31/bin/../lib/gcc/pic32mx/4.5.2/../../../../pic32mx/lib\libpic32.a(vector6.o)

.data%z132      0x00000000        0x0
 .data          0x00000000        0x0 c:/program files/microchip/xc32/v1.31/bin/../lib/gcc/pic32mx/4.5.2/../../../../pic32mx/lib\libpic32.a(vector6.o)

.bss%z133       0x00000000        0x0
 .bss           0x00000000        0x0 c:/program files/microchip/xc32/v1.31/bin/../lib/gcc/pic32mx/4.5.2/../../../../pic32mx/lib\libpic32.a(vector5.o)

.data%z134      0x00000000        0x0
 .data          0x00000000        0x0 c:/program files/microchip/xc32/v1.31/bin/../lib/gcc/pic32mx/4.5.2/../../../../pic32mx/lib\libpic32.a(vector5.o)

.bss%z135       0x00000000        0x0
 .bss           0x00000000        0x0 c:/program files/microchip/xc32/v1.31/bin/../lib/gcc/pic32mx/4.5.2/../../../../pic32mx/lib\libpic32.a(vector3.o)

.data%z136      0x00000000        0x0
 .data          0x00000000        0x0 c:/program files/microchip/xc32/v1.31/bin/../lib/gcc/pic32mx/4.5.2/../../../../pic32mx/lib\libpic32.a(vector3.o)

.bss%z137       0x00000000        0x0
 .bss           0x00000000        0x0 c:/program files/microchip/xc32/v1.31/bin/../lib/gcc/pic32mx/4.5.2/../../../../pic32mx/lib\libpic32.a(vector2.o)

.data%z138      0x00000000        0x0
 .data          0x00000000        0x0 c:/program files/microchip/xc32/v1.31/bin/../lib/gcc/pic32mx/4.5.2/../../../../pic32mx/lib\libpic32.a(vector2.o)

.bss%z139       0x00000000        0x0
 .bss           0x00000000        0x0 c:/program files/microchip/xc32/v1.31/bin/../lib/gcc/pic32mx/4.5.2/../../../../pic32mx/lib\libpic32.a(vector1.o)

.data%z140      0x00000000        0x0
 .data          0x00000000        0x0 c:/program files/microchip/xc32/v1.31/bin/../lib/gcc/pic32mx/4.5.2/../../../../pic32mx/lib\libpic32.a(vector1.o)

.bss%z141       0x00000000        0x0
 .bss           0x00000000        0x0 c:/program files/microchip/xc32/v1.31/bin/../lib/gcc/pic32mx/4.5.2/../../../../pic32mx/lib\libpic32.a(vector0.o)

.data%z142      0x00000000        0x0
 .data          0x00000000        0x0 c:/program files/microchip/xc32/v1.31/bin/../lib/gcc/pic32mx/4.5.2/../../../../pic32mx/lib\libpic32.a(vector0.o)

.bss%z143       0x00000000        0x0
 .bss           0x00000000        0x0 c:/program files/microchip/xc32/v1.31/bin/../lib/gcc/pic32mx/4.5.2/../../../../pic32mx/lib\libpic32.a(general-exception.o)

.data%z144      0x00000000        0x0
 .data          0x00000000        0x0 c:/program files/microchip/xc32/v1.31/bin/../lib/gcc/pic32mx/4.5.2/../../../../pic32mx/lib\libpic32.a(general-exception.o)

.bss%z145       0x00000000        0x0
 .bss           0x00000000        0x0 c:/program files/microchip/xc32/v1.31/bin/../lib/gcc/pic32mx/4.5.2/../../../../pic32mx/lib\libpic32.a(pic32_software_reset.o)

.data%z146      0x00000000        0x0
 .data          0x00000000        0x0 c:/program files/microchip/xc32/v1.31/bin/../lib/gcc/pic32mx/4.5.2/../../../../pic32mx/lib\libpic32.a(pic32_software_reset.o)

.bss%z147       0x00000000        0x0
 .bss           0x00000000        0x0 c:/program files/microchip/xc32/v1.31/bin/../lib/gcc/pic32mx/4.5.2/../../../../pic32mx/lib\libpic32.a(default-nmi-handler.o)

.data%z148      0x00000000        0x0
 .data          0x00000000        0x0 c:/program files/microchip/xc32/v1.31/bin/../lib/gcc/pic32mx/4.5.2/../../../../pic32mx/lib\libpic32.a(default-nmi-handler.o)

.bss%z149       0x00000000        0x0
 .bss           0x00000000        0x0 c:/program files/microchip/xc32/v1.31/bin/../lib/gcc/pic32mx/4.5.2/../../../../pic32mx/lib\libpic32.a(default-on-bootstrap.o)

.data%z150      0x00000000        0x0
 .data          0x00000000        0x0 c:/program files/microchip/xc32/v1.31/bin/../lib/gcc/pic32mx/4.5.2/../../../../pic32mx/lib\libpic32.a(default-on-bootstrap.o)

.bss%z151       0x00000000        0x0
 .bss           0x00000000        0x0 c:/program files/microchip/xc32/v1.31/bin/../lib/gcc/pic32mx/4.5.2/../../../../pic32mx/lib\libpic32.a(default-on-reset.o)

.data%z152      0x00000000        0x0
 .data          0x00000000        0x0 c:/program files/microchip/xc32/v1.31/bin/../lib/gcc/pic32mx/4.5.2/../../../../pic32mx/lib\libpic32.a(default-on-reset.o)

.bss%z153       0x00000000        0x0
 .bss           0x00000000        0x0 c:/program files/microchip/xc32/v1.31/bin/../lib/gcc/pic32mx/4.5.2/../../../../pic32mx/lib\libpic32.a(default-bootstrap-exception-handler.o)

.data%z154      0x00000000        0x0
 .data          0x00000000        0x0 c:/program files/microchip/xc32/v1.31/bin/../lib/gcc/pic32mx/4.5.2/../../../../pic32mx/lib\libpic32.a(default-bootstrap-exception-handler.o)

.bss%z155       0x00000000        0x0
 .bss           0x00000000        0x0 c:/program files/microchip/xc32/v1.31/bin/../lib/gcc/pic32mx/4.5.2/../../../../pic32mx/lib\libpic32.a(strlen.o)

.data%z156      0x00000000        0x0
 .data          0x00000000        0x0 c:/program files/microchip/xc32/v1.31/bin/../lib/gcc/pic32mx/4.5.2/../../../../pic32mx/lib\libpic32.a(strlen.o)

.bss%z157       0x00000000        0x0
 .bss           0x00000000        0x0 c:/program files/microchip/xc32/v1.31/bin/../lib/gcc/pic32mx/4.5.2/../../../../pic32mx/lib\libpic32.a(strcmp.o)

.data%z158      0x00000000        0x0
 .data          0x00000000        0x0 c:/program files/microchip/xc32/v1.31/bin/../lib/gcc/pic32mx/4.5.2/../../../../pic32mx/lib\libpic32.a(strcmp.o)

.bss%z159       0x00000000        0x0
 .bss           0x00000000        0x0 c:/program files/microchip/xc32/v1.31/bin/../lib/gcc/pic32mx/4.5.2/../../../../pic32mx/lib\libpic32.a(memset.o)

.data%z160      0x00000000        0x0
 .data          0x00000000        0x0 c:/program files/microchip/xc32/v1.31/bin/../lib/gcc/pic32mx/4.5.2/../../../../pic32mx/lib\libpic32.a(memset.o)

.bss%z161       0x00000000        0x0
 .bss           0x00000000        0x0 c:/program files/microchip/xc32/v1.31/bin/../lib/gcc/pic32mx/4.5.2/../../../../pic32mx/lib\libpic32.a(memcpy.o)

.data%z162      0x00000000        0x0
 .data          0x00000000        0x0 c:/program files/microchip/xc32/v1.31/bin/../lib/gcc/pic32mx/4.5.2/../../../../pic32mx/lib\libpic32.a(memcpy.o)

.bss%z163       0x00000000        0x0
 .bss           0x00000000        0x0 c:/program files/microchip/xc32/v1.31/bin/../lib/gcc/pic32mx/4.5.2/../../../../pic32mx/lib\libpic32.a(memcmp.o)

.data%z164      0x00000000        0x0
 .data          0x00000000        0x0 c:/program files/microchip/xc32/v1.31/bin/../lib/gcc/pic32mx/4.5.2/../../../../pic32mx/lib\libpic32.a(memcmp.o)

.bss%z165       0x00000000        0x0
 .bss           0x00000000        0x0 c:/program files/microchip/xc32/v1.31/bin/../lib/gcc/pic32mx/4.5.2\libgcc.a(_umoddi3.o)

.data%z166      0x00000000        0x0
 .data          0x00000000        0x0 c:/program files/microchip/xc32/v1.31/bin/../lib/gcc/pic32mx/4.5.2\libgcc.a(_umoddi3.o)

.bss%z167       0x00000000        0x0
 .bss           0x00000000        0x0 c:/program files/microchip/xc32/v1.31/bin/../lib/gcc/pic32mx/4.5.2\libgcc.a(_udivdi3.o)

.data%z168      0x00000000        0x0
 .data          0x00000000        0x0 c:/program files/microchip/xc32/v1.31/bin/../lib/gcc/pic32mx/4.5.2\libgcc.a(_udivdi3.o)

.bss%z169       0x00000000        0x0
 .bss           0x00000000        0x0 c:/program files/microchip/xc32/v1.31/bin/../lib/gcc/pic32mx/4.5.2/../../../../pic32mx/lib\libmchp_peripheral_32MX795F512L.a(int_enable_interrupts_lib.o)

.data%z170      0x00000000        0x0
 .data          0x00000000        0x0 c:/program files/microchip/xc32/v1.31/bin/../lib/gcc/pic32mx/4.5.2/../../../../pic32mx/lib\libmchp_peripheral_32MX795F512L.a(int_enable_interrupts_lib.o)

.bss%z171       0x00000000        0x0
 .bss           0x00000000        0x0 c:/program files/microchip/xc32/v1.31/bin/../lib/gcc/pic32mx/4.5.2/../../../../pic32mx/lib\libmchp_peripheral_32MX795F512L.a(_ports_tbl_libp.o)

.data%z172      0x00000000        0x0
 .data          0x00000000        0x0 c:/program files/microchip/xc32/v1.31/bin/../lib/gcc/pic32mx/4.5.2/../../../../pic32mx/lib\libmchp_peripheral_32MX795F512L.a(_ports_tbl_libp.o)

.bss%z173       0x00000000        0x0
 .bss           0x00000000        0x0 c:/program files/microchip/xc32/v1.31/bin/../lib/gcc/pic32mx/4.5.2/../../../../pic32mx/lib\libmchp_peripheral_32MX795F512L.a(port_set_pins_digital_out_lib.o)

.data%z174      0x00000000        0x0
 .data          0x00000000        0x0 c:/program files/microchip/xc32/v1.31/bin/../lib/gcc/pic32mx/4.5.2/../../../../pic32mx/lib\libmchp_peripheral_32MX795F512L.a(port_set_pins_digital_out_lib.o)

.bss%z175       0x00000000        0x0
 .bss           0x00000000        0x0 c:/program files/microchip/xc32/v1.31/bin/../lib/gcc/pic32mx/4.5.2/../../../../pic32mx/lib\libmchp_peripheral_32MX795F512L.a(port_set_pins_digital_in_lib.o)

.data%z176      0x00000000        0x0
 .data          0x00000000        0x0 c:/program files/microchip/xc32/v1.31/bin/../lib/gcc/pic32mx/4.5.2/../../../../pic32mx/lib\libmchp_peripheral_32MX795F512L.a(port_set_pins_digital_in_lib.o)

.bss%z177       0x00000000        0x0
 .bss           0x00000000        0x0 c:/program files/microchip/xc32/v1.31/bin/../lib/gcc/pic32mx/4.5.2/../../../../pic32mx/lib\libmchp_peripheral_32MX795F512L.a(int_tbl_lib.o)

.data%z178      0x00000000        0x0
 .data          0x00000000        0x0 c:/program files/microchip/xc32/v1.31/bin/../lib/gcc/pic32mx/4.5.2/../../../../pic32mx/lib\libmchp_peripheral_32MX795F512L.a(int_tbl_lib.o)

.bss%z179       0x00000000        0x0
 .bss           0x00000000        0x0 c:/program files/microchip/xc32/v1.31/bin/../lib/gcc/pic32mx/4.5.2/../../../../pic32mx/lib\libmchp_peripheral_32MX795F512L.a(int_enable_mv_int_lib.o)

.data%z180      0x00000000        0x0
 .data          0x00000000        0x0 c:/program files/microchip/xc32/v1.31/bin/../lib/gcc/pic32mx/4.5.2/../../../../pic32mx/lib\libmchp_peripheral_32MX795F512L.a(int_enable_mv_int_lib.o)

.bss%z181       0x00000000        0x0
 .bss           0x00000000        0x0 c:/program files/microchip/xc32/v1.31/bin/../lib/gcc/pic32mx/4.5.2/../../../../pic32mx/lib\libmchp_peripheral_32MX795F512L.a(int_restore_interrupts_lib.o)

.data%z182      0x00000000        0x0
 .data          0x00000000        0x0 c:/program files/microchip/xc32/v1.31/bin/../lib/gcc/pic32mx/4.5.2/../../../../pic32mx/lib\libmchp_peripheral_32MX795F512L.a(int_restore_interrupts_lib.o)

.bss%z183       0x00000000        0x0
 .bss           0x00000000        0x0 c:/program files/microchip/xc32/v1.31/bin/../lib/gcc/pic32mx/4.5.2/../../../../pic32mx/lib\libmchp_peripheral_32MX795F512L.a(int_disable_interrupts_lib.o)

.data%z184      0x00000000        0x0
 .data          0x00000000        0x0 c:/program files/microchip/xc32/v1.31/bin/../lib/gcc/pic32mx/4.5.2/../../../../pic32mx/lib\libmchp_peripheral_32MX795F512L.a(int_disable_interrupts_lib.o)

.bss%z185       0x00000000        0x0
 .bss           0x00000000        0x0 c:/program files/microchip/xc32/v1.31/bin/../lib/gcc/pic32mx/4.5.2/../../../../pic32mx/lib\libmchp_peripheral_32MX795F512L.a(pcache.o)

.data%z186      0x00000000        0x0
 .data          0x00000000        0x0 c:/program files/microchip/xc32/v1.31/bin/../lib/gcc/pic32mx/4.5.2/../../../../pic32mx/lib\libmchp_peripheral_32MX795F512L.a(pcache.o)

.bss%z187       0x00000000        0x0
 .bss           0x00000000        0x0 c:/program files/microchip/xc32/v1.31/bin/../lib/gcc/pic32mx/4.5.2/../../../../pic32mx/lib\libmchp_peripheral_32MX795F512L.a(soft_reset_lib.o)

.data%z188      0x00000000        0x0
 .data          0x00000000        0x0 c:/program files/microchip/xc32/v1.31/bin/../lib/gcc/pic32mx/4.5.2/../../../../pic32mx/lib\libmchp_peripheral_32MX795F512L.a(soft_reset_lib.o)

.bss%z189       0x00000000        0x0
 .bss           0x00000000        0x0 c:/program files/microchip/xc32/v1.31/bin/../lib/gcc/pic32mx/4.5.2/../../../../pic32mx/lib\libmchp_peripheral_32MX795F512L.a(eth_miim_access.o)

.data%z190      0x00000000        0x0
 .data          0x00000000        0x0 c:/program files/microchip/xc32/v1.31/bin/../lib/gcc/pic32mx/4.5.2/../../../../pic32mx/lib\libmchp_peripheral_32MX795F512L.a(eth_miim_access.o)

.bss%z191       0x00000000        0x0
 .bss           0x00000000        0x0 c:/program files/microchip/xc32/v1.31/bin/../lib/gcc/pic32mx/4.5.2/../../../../pic32mx/lib\libmchp_peripheral_32MX795F512L.a(_eth_append_busy_list_lib.o)

.data%z192      0x00000000        0x0
 .data          0x00000000        0x0 c:/program files/microchip/xc32/v1.31/bin/../lib/gcc/pic32mx/4.5.2/../../../../pic32mx/lib\libmchp_peripheral_32MX795F512L.a(_eth_append_busy_list_lib.o)

.bss%z193       0x00000000        0x0
 .bss           0x00000000        0x0 c:/program files/microchip/xc32/v1.31/bin/../lib/gcc/pic32mx/4.5.2/../../../../pic32mx/lib\libmchp_peripheral_32MX795F512L.a(eth_tx_packet_lib.o)

.data%z194      0x00000000        0x0
 .data          0x00000000        0x0 c:/program files/microchip/xc32/v1.31/bin/../lib/gcc/pic32mx/4.5.2/../../../../pic32mx/lib\libmchp_peripheral_32MX795F512L.a(eth_tx_packet_lib.o)

.bss%z195       0x00000000        0x0
 .bss           0x00000000        0x0 c:/program files/microchip/xc32/v1.31/bin/../lib/gcc/pic32mx/4.5.2/../../../../pic32mx/lib\libmchp_peripheral_32MX795F512L.a(eth_rx_set_buffer_size_lib.o)

.data%z196      0x00000000        0x0
 .data          0x00000000        0x0 c:/program files/microchip/xc32/v1.31/bin/../lib/gcc/pic32mx/4.5.2/../../../../pic32mx/lib\libmchp_peripheral_32MX795F512L.a(eth_rx_set_buffer_size_lib.o)

.bss%z197       0x00000000        0x0
 .bss           0x00000000        0x0 c:/program files/microchip/xc32/v1.31/bin/../lib/gcc/pic32mx/4.5.2/../../../../pic32mx/lib\libmchp_peripheral_32MX795F512L.a(eth_rx_get_packet_lib.o)

.data%z198      0x00000000        0x0
 .data          0x00000000        0x0 c:/program files/microchip/xc32/v1.31/bin/../lib/gcc/pic32mx/4.5.2/../../../../pic32mx/lib\libmchp_peripheral_32MX795F512L.a(eth_rx_get_packet_lib.o)

.bss%z199       0x00000000        0x0
 .bss           0x00000000        0x0 c:/program files/microchip/xc32/v1.31/bin/../lib/gcc/pic32mx/4.5.2/../../../../pic32mx/lib\libmchp_peripheral_32MX795F512L.a(eth_rx_filters_lib.o)

.data%z200      0x00000000        0x0
 .data          0x00000000        0x0 c:/program files/microchip/xc32/v1.31/bin/../lib/gcc/pic32mx/4.5.2/../../../../pic32mx/lib\libmchp_peripheral_32MX795F512L.a(eth_rx_filters_lib.o)

.bss%z201       0x00000000        0x0
 .bss           0x00000000        0x0 c:/program files/microchip/xc32/v1.31/bin/../lib/gcc/pic32mx/4.5.2/../../../../pic32mx/lib\libmchp_peripheral_32MX795F512L.a(eth_rx_buffers_append_lib.o)

.data%z202      0x00000000        0x0
 .data          0x00000000        0x0 c:/program files/microchip/xc32/v1.31/bin/../lib/gcc/pic32mx/4.5.2/../../../../pic32mx/lib\libmchp_peripheral_32MX795F512L.a(eth_rx_buffers_append_lib.o)

.bss%z203       0x00000000        0x0
 .bss           0x00000000        0x0 c:/program files/microchip/xc32/v1.31/bin/../lib/gcc/pic32mx/4.5.2/../../../../pic32mx/lib\libmchp_peripheral_32MX795F512L.a(eth_mac_set_address_max_lib.o)

.data%z204      0x00000000        0x0
 .data          0x00000000        0x0 c:/program files/microchip/xc32/v1.31/bin/../lib/gcc/pic32mx/4.5.2/../../../../pic32mx/lib\libmchp_peripheral_32MX795F512L.a(eth_mac_set_address_max_lib.o)

.bss%z205       0x00000000        0x0
 .bss           0x00000000        0x0 c:/program files/microchip/xc32/v1.31/bin/../lib/gcc/pic32mx/4.5.2/../../../../pic32mx/lib\libmchp_peripheral_32MX795F512L.a(eth_mac_open_lib.o)

.data%z206      0x00000000        0x0
 .data          0x00000000        0x0 c:/program files/microchip/xc32/v1.31/bin/../lib/gcc/pic32mx/4.5.2/../../../../pic32mx/lib\libmchp_peripheral_32MX795F512L.a(eth_mac_open_lib.o)

.bss%z207       0x00000000        0x0
 .bss           0x00000000        0x0 c:/program files/microchip/xc32/v1.31/bin/../lib/gcc/pic32mx/4.5.2/../../../../pic32mx/lib\libmchp_peripheral_32MX795F512L.a(eth_init_lib.o)

.data%z208      0x00000000        0x0
 .data          0x00000000        0x0 c:/program files/microchip/xc32/v1.31/bin/../lib/gcc/pic32mx/4.5.2/../../../../pic32mx/lib\libmchp_peripheral_32MX795F512L.a(eth_init_lib.o)

.bss%z209       0x00000000        0x0
 .bss           0x00000000        0x0 c:/program files/microchip/xc32/v1.31/bin/../lib/gcc/pic32mx/4.5.2/../../../../pic32mx/lib\libmchp_peripheral_32MX795F512L.a(eth_descriptors_add_lib.o)

.data%z210      0x00000000        0x0
 .data          0x00000000        0x0 c:/program files/microchip/xc32/v1.31/bin/../lib/gcc/pic32mx/4.5.2/../../../../pic32mx/lib\libmchp_peripheral_32MX795F512L.a(eth_descriptors_add_lib.o)

.bss%z211       0x00000000        0x0
 .bss           0x00000000        0x0 c:/program files/microchip/xc32/v1.31/bin/../lib/gcc/pic32mx/4.5.2/../../../../pic32mx/lib\libmchp_peripheral_32MX795F512L.a(eth_ack_packet_lib.o)

.data%z212      0x00000000        0x0
 .data          0x00000000        0x0 c:/program files/microchip/xc32/v1.31/bin/../lib/gcc/pic32mx/4.5.2/../../../../pic32mx/lib\libmchp_peripheral_32MX795F512L.a(eth_ack_packet_lib.o)

.bss%z213       0x00000000        0x0
 .bss           0x00000000        0x0 c:/program files/microchip/xc32/v1.31/bin/../lib/gcc/pic32mx/4.5.2/../../../../pic32mx/lib\libmchp_peripheral.a(read_core_timer_lib.o)

.data%z214      0x00000000        0x0
 .data          0x00000000        0x0 c:/program files/microchip/xc32/v1.31/bin/../lib/gcc/pic32mx/4.5.2/../../../../pic32mx/lib\libmchp_peripheral.a(read_core_timer_lib.o)

.bss%z215       0x00000000        0x0
 .bss           0x00000000        0x0 c:/program files/microchip/xc32/v1.31/bin/../lib/gcc/pic32mx/4.5.2/../../../../pic32mx/lib/./proc/32MX795F512L\processor.o

.data%z216      0x00000000        0x0
 .data          0x00000000        0x0 c:/program files/microchip/xc32/v1.31/bin/../lib/gcc/pic32mx/4.5.2/../../../../pic32mx/lib/./proc/32MX795F512L\processor.o

.bss%z217       0x00000000        0x0
 .bss           0x00000000        0x0 c:/program files/microchip/xc32/v1.31/bin/../lib/gcc/pic32mx/4.5.2/../../../../pic32mx/lib/./proc/32MX795F512L\default_isr_vectors.o

.data%z218      0x00000000        0x0
 .data          0x00000000        0x0 c:/program files/microchip/xc32/v1.31/bin/../lib/gcc/pic32mx/4.5.2/../../../../pic32mx/lib/./proc/32MX795F512L\default_isr_vectors.o

.data%z219      0x00000000        0x0
 .data          0x00000000        0x0 build/XC32-PIC32_ETH_SK_ETH795/production/_ext/1360937237/artnet.o

.data%z220      0x00000000        0x0
 .data          0x00000000        0x0 build/XC32-PIC32_ETH_SK_ETH795/production/_ext/1360937237/HTTPApp.o

.bss%z221       0x00000000        0x0
 .bss           0x00000000        0x0 build/XC32-PIC32_ETH_SK_ETH795/production/_ext/1360937237/Ping.o

.data%z222      0x00000000        0x0
 .data          0x00000000        0x0 build/XC32-PIC32_ETH_SK_ETH795/production/_ext/1360937237/Ping.o

.bss%z223       0x00000000        0x0
 .bss           0x00000000        0x0 build/XC32-PIC32_ETH_SK_ETH795/production/_ext/1360937237/gva_dmx.o

.data%z224      0x00000000        0x0
 .data          0x00000000        0x0 build/XC32-PIC32_ETH_SK_ETH795/production/_ext/1360937237/gva_dmx.o

.bss%z225       0x00000000        0x0
 .bss           0x00000000        0x0 build/XC32-PIC32_ETH_SK_ETH795/production/_ext/1360937237/dmx.o

.data%z226      0x00000000        0x0
 .data          0x00000000        0x0 build/XC32-PIC32_ETH_SK_ETH795/production/_ext/1360937237/dmx.o

.bss%z227       0x00000000        0x0
 .bss           0x00000000        0x0 build/XC32-PIC32_ETH_SK_ETH795/production/_ext/1360937237/Main.o

.data%z228      0x00000000        0x0
 .data          0x00000000        0x0 build/XC32-PIC32_ETH_SK_ETH795/production/_ext/1360937237/Main.o

.bss%z229       0x00000000        0x0
 .bss           0x00000000        0x0 build/XC32-PIC32_ETH_SK_ETH795/production/_ext/1840844407/UDP.o

.data%z230      0x00000000        0x0
 .data          0x00000000        0x0 build/XC32-PIC32_ETH_SK_ETH795/production/_ext/1840844407/UDP.o

.bss%z231       0x00000000        0x0
 .bss           0x00000000        0x0 build/XC32-PIC32_ETH_SK_ETH795/production/_ext/1840844407/UART.o

.data%z232      0x00000000        0x0
 .data          0x00000000        0x0 build/XC32-PIC32_ETH_SK_ETH795/production/_ext/1840844407/UART.o

.bss%z233       0x00000000        0x0
 .bss           0x00000000        0x0 build/XC32-PIC32_ETH_SK_ETH795/production/_ext/1840844407/Tick.o

.data%z234      0x00000000        0x0
 .data          0x00000000        0x0 build/XC32-PIC32_ETH_SK_ETH795/production/_ext/1840844407/Tick.o

.bss%z235       0x00000000        0x0
 .bss           0x00000000        0x0 build/XC32-PIC32_ETH_SK_ETH795/production/_ext/1840844407/Telnet.o

.data%z236      0x00000000        0x0
 .data          0x00000000        0x0 build/XC32-PIC32_ETH_SK_ETH795/production/_ext/1840844407/Telnet.o

.data%z237      0x00000000        0x0
 .data          0x00000000        0x0 build/XC32-PIC32_ETH_SK_ETH795/production/_ext/1840844407/TCP.o

.bss%z238       0x00000000        0x0
 .bss           0x00000000        0x0 build/XC32-PIC32_ETH_SK_ETH795/production/_ext/1840844407/StackTsk.o

.data%z239      0x00000000        0x0
 .data          0x00000000        0x0 build/XC32-PIC32_ETH_SK_ETH795/production/_ext/1840844407/StackTsk.o

.bss%z240       0x00000000        0x0
 .bss           0x00000000        0x0 build/XC32-PIC32_ETH_SK_ETH795/production/_ext/1840844407/Reboot.o

.data%z241      0x00000000        0x0
 .data          0x00000000        0x0 build/XC32-PIC32_ETH_SK_ETH795/production/_ext/1840844407/Reboot.o

.bss%z242       0x00000000        0x0
 .bss           0x00000000        0x0 build/XC32-PIC32_ETH_SK_ETH795/production/_ext/1840844407/Random.o

.data%z243      0x00000000        0x0
 .data          0x00000000        0x0 build/XC32-PIC32_ETH_SK_ETH795/production/_ext/1840844407/Random.o

.bss%z244       0x00000000        0x0
 .bss           0x00000000        0x0 build/XC32-PIC32_ETH_SK_ETH795/production/_ext/1840844407/NBNS.o

.data%z245      0x00000000        0x0
 .data          0x00000000        0x0 build/XC32-PIC32_ETH_SK_ETH795/production/_ext/1840844407/NBNS.o

.bss%z246       0x00000000        0x0
 .bss           0x00000000        0x0 build/XC32-PIC32_ETH_SK_ETH795/production/_ext/1472/MPFSImg2.o

.data%z247      0x00000000        0x0
 .data          0x00000000        0x0 build/XC32-PIC32_ETH_SK_ETH795/production/_ext/1472/MPFSImg2.o

.data%z248      0x00000000        0x0
 .data          0x00000000        0x0 build/XC32-PIC32_ETH_SK_ETH795/production/_ext/1840844407/MPFS2.o

.bss%z249       0x00000000        0x0
 .bss           0x00000000        0x0 build/XC32-PIC32_ETH_SK_ETH795/production/_ext/1840844407/IP.o

.data%z250      0x00000000        0x0
 .data          0x00000000        0x0 build/XC32-PIC32_ETH_SK_ETH795/production/_ext/1840844407/IP.o

.data%z251      0x00000000        0x0
 .data          0x00000000        0x0 build/XC32-PIC32_ETH_SK_ETH795/production/_ext/1840844407/ICMP.o

.bss%z252       0x00000000        0x0
 .bss           0x00000000        0x0 build/XC32-PIC32_ETH_SK_ETH795/production/_ext/1840844407/Helpers.o

.data%z253      0x00000000        0x0
 .data          0x00000000        0x0 build/XC32-PIC32_ETH_SK_ETH795/production/_ext/1840844407/Helpers.o

.bss%z254       0x00000000        0x0
 .bss           0x00000000        0x0 build/XC32-PIC32_ETH_SK_ETH795/production/_ext/1840844407/Hashes.o

.data%z255      0x00000000        0x0
 .data          0x00000000        0x0 build/XC32-PIC32_ETH_SK_ETH795/production/_ext/1840844407/Hashes.o

.bss%z256       0x00000000        0x0
 .bss           0x00000000        0x0 build/XC32-PIC32_ETH_SK_ETH795/production/_ext/1840844407/HTTP2.o

.data%z257      0x00000000        0x0
 .data          0x00000000        0x0 build/XC32-PIC32_ETH_SK_ETH795/production/_ext/1840844407/HTTP2.o

.bss%z258       0x00000000        0x0
 .bss           0x00000000        0x0 build/XC32-PIC32_ETH_SK_ETH795/production/_ext/1840844407/FileSystem.o

.data%z259      0x00000000        0x0
 .data          0x00000000        0x0 build/XC32-PIC32_ETH_SK_ETH795/production/_ext/1840844407/FileSystem.o

.data%z260      0x00000000        0x0
 .data          0x00000000        0x0 build/XC32-PIC32_ETH_SK_ETH795/production/_ext/1840844407/ETHPIC32IntMac.o

.bss%z261       0x00000000        0x0
 .bss           0x00000000        0x0 build/XC32-PIC32_ETH_SK_ETH795/production/_ext/1840844407/ETHPIC32ExtPhyDP83848.o

.data%z262      0x00000000        0x0
 .data          0x00000000        0x0 build/XC32-PIC32_ETH_SK_ETH795/production/_ext/1840844407/ETHPIC32ExtPhyDP83848.o

.bss%z263       0x00000000        0x0
 .bss           0x00000000        0x0 build/XC32-PIC32_ETH_SK_ETH795/production/_ext/1840844407/ETHPIC32ExtPhy.o

.data%z264      0x00000000        0x0
 .data          0x00000000        0x0 build/XC32-PIC32_ETH_SK_ETH795/production/_ext/1840844407/ETHPIC32ExtPhy.o

.bss%z265       0x00000000        0x0
 .bss           0x00000000        0x0 build/XC32-PIC32_ETH_SK_ETH795/production/_ext/1840844407/Delay.o

.data%z266      0x00000000        0x0
 .data          0x00000000        0x0 build/XC32-PIC32_ETH_SK_ETH795/production/_ext/1840844407/Delay.o

.bss%z267       0x00000000        0x0
 .bss           0x00000000        0x0 build/XC32-PIC32_ETH_SK_ETH795/production/_ext/1840844407/DNSs.o

.data%z268      0x00000000        0x0
 .data          0x00000000        0x0 build/XC32-PIC32_ETH_SK_ETH795/production/_ext/1840844407/DNSs.o

.data%z269      0x00000000        0x0
 .data          0x00000000        0x0 build/XC32-PIC32_ETH_SK_ETH795/production/_ext/1840844407/DNS.o

.bss%z270       0x00000000        0x0
 .bss           0x00000000        0x0 build/XC32-PIC32_ETH_SK_ETH795/production/_ext/1840844407/DHCPs.o

.data%z271      0x00000000        0x0
 .data          0x00000000        0x0 build/XC32-PIC32_ETH_SK_ETH795/production/_ext/1840844407/DHCPs.o

.data%z272      0x00000000        0x0
 .data          0x00000000        0x0 build/XC32-PIC32_ETH_SK_ETH795/production/_ext/1840844407/DHCP.o

.bss%z273       0x00000000        0x0
 .bss           0x00000000        0x0 build/XC32-PIC32_ETH_SK_ETH795/production/_ext/1840844407/BigInt_helper_PIC32.o

.data%z274      0x00000000        0x0
 .data          0x00000000        0x0 build/XC32-PIC32_ETH_SK_ETH795/production/_ext/1840844407/BigInt_helper_PIC32.o

.bss%z275       0x00000000        0x0
 .bss           0x00000000        0x0 build/XC32-PIC32_ETH_SK_ETH795/production/_ext/1840844407/BigInt.o

.data%z276      0x00000000        0x0
 .data          0x00000000        0x0 build/XC32-PIC32_ETH_SK_ETH795/production/_ext/1840844407/BigInt.o

.bss%z277       0x00000000        0x0
 .bss           0x00000000        0x0 build/XC32-PIC32_ETH_SK_ETH795/production/_ext/1840844407/AutoIP.o

.data%z278      0x00000000        0x0
 .data          0x00000000        0x0 build/XC32-PIC32_ETH_SK_ETH795/production/_ext/1840844407/AutoIP.o

.data%z279      0x00000000        0x0
 .data          0x00000000        0x0 build/XC32-PIC32_ETH_SK_ETH795/production/_ext/1840844407/ARP.o

.bss%z280       0x00000000        0x0
 .bss           0x00000000        0x0 build/XC32-PIC32_ETH_SK_ETH795/production/_ext/1840844407/ARCFOUR.o

.data%z281      0x00000000        0x0
 .data          0x00000000        0x0 build/XC32-PIC32_ETH_SK_ETH795/production/_ext/1840844407/ARCFOUR.o

.bss%z282       0x00000000        0x0
 .bss           0x00000000        0x0 c:/program files/microchip/xc32/v1.31/bin/../lib/gcc/pic32mx/4.5.2/../../../../pic32mx/lib/./proc/32MX795F512L/crt0_mips32r2.o

.data%z283      0x00000000        0x0
 .data          0x00000000        0x0 c:/program files/microchip/xc32/v1.31/bin/../lib/gcc/pic32mx/4.5.2/../../../../pic32mx/lib/./proc/32MX795F512L/crt0_mips32r2.o

._debug_exception
                0xbfc00480       0x24
 ._debug_exception
                0xbfc00480       0x24 c:/program files/microchip/xc32/v1.31/bin/../lib/gcc/pic32mx/4.5.2/../../../../pic32mx/lib\debug-exception-return.o
                0xbfc00480                __DbgExecReturn

.text           0x9d000000     0x866c
 .text          0x9d000000     0x866c build/XC32-PIC32_ETH_SK_ETH795/production/_ext/1840844407/TCP.o
                0x9d00012c                TCPInit
                0x9d000430                TCPOpen
                0x9d0008c0                TCPWasReset
                0x9d000974                TCPIsConnected
                0x9d0009e8                TCPDisconnect
                0x9d000c98                TCPClose
                0x9d000d24                TCPGetRemoteInfo
                0x9d000dbc                TCPFlush
                0x9d000e5c                TCPIsPutReady
                0x9d001054                TCPPut
                0x9d0013d0                TCPPutArray
                0x9d001858                TCPPutString
                0x9d0018c8                TCPGetTxFIFOFull
                0x9d001998                TCPDiscard
                0x9d001a40                TCPIsGetReady
                0x9d001be0                TCPGet
                0x9d001e78                TCPGetArray
                0x9d002240                TCPGetRxFIFOFree
                0x9d002308                TCPPeekArray
                0x9d0025b4                TCPPeek
                0x9d002614                TCPFindArrayEx
                0x9d002c3c                TCPFindEx
                0x9d002cb4                TCPTick
                0x9d003d8c                TCPProcess
                0x9d007d90                TCPAdjustFIFOSize

.rodata         0x9d00866c     0x7ad8
 .rodata        0x9d00866c     0x7ad8 build/XC32-PIC32_ETH_SK_ETH795/production/_ext/1472/MPFSImg2.o
                0x9d00866c                MPFS_Start

.text           0x9d010144    0x127dc
 .text          0x9d010144     0x3b70 build/XC32-PIC32_ETH_SK_ETH795/production/_ext/1840844407/HTTP2.o
                0x9d010144                HTTPPrint
                0x9d010764                HTTPPrint_
                0x9d0107b8                HTTPInit
                0x9d0108e8                HTTPServer
                0x9d01332c                HTTPURLDecode
                0x9d013508                HTTPGetArg
                0x9d0135d8                HTTPReadPostName
                0x9d013654                HTTPReadPostValue
                0x9d013a9c                HTTPIncFile
 .text          0x9d013cb4     0x2eb4 build/XC32-PIC32_ETH_SK_ETH795/production/_ext/1360937237/HTTPApp.o
                0x9d013cb4                HTTPNeedsAuth
                0x9d013d3c                HTTPCheckAuth
                0x9d013dbc                HTTPExecuteGet
                0x9d0141d0                HTTPExecutePost
                0x9d015180                HTTPPrint_builddate
                0x9d01523c                HTTPPrint_version
                0x9d01529c                HTTPPrint_btn
                0x9d0153d4                HTTPPrint_led
                0x9d015580                HTTPPrint_ledSelected
                0x9d015750                HTTPPrint_pot
                0x9d0157d0                HTTPPrint_lcdtext
                0x9d01585c                HTTPPrint_hellomsg
                0x9d015914                HTTPPrint_cookiename
                0x9d0159d4                HTTPPrint_uploadeImage
                0x9d0159f4                HTTPPrint_uploadedmd5
                0x9d015c28                HTTPPrintIP
                0x9d015d10                HTTPPrint_config_hostname
                0x9d015d68                HTTPPrint_config_dhcpchecked
                0x9d015de4                HTTPPrint_config_ip
                0x9d015e30                HTTPPrint_config_gw
                0x9d015e7c                HTTPPrint_config_subnet
                0x9d015ec8                HTTPPrint_config_dns1
                0x9d015f14                HTTPPrint_config_dns2
                0x9d015f60                HTTPPrint_config_mac
                0x9d0160ec                HTTPPrint_read_comm
                0x9d016114                HTTPPrint_write_comm
                0x9d01613c                HTTPPrint_reboot
                0x9d016154                HTTPPrint_rebootaddr
                0x9d0161ac                HTTPPrint_ddns_user
                0x9d0162b8                HTTPPrint_ddns_pass
                0x9d0163c4                HTTPPrint_ddns_host
                0x9d0164d0                HTTPPrint_ddns_service
                0x9d0165ac                HTTPPrint_ddns_status
                0x9d0166d4                HTTPPrint_ddns_status_msg
                0x9d016948                HTTPPrint_smtps_en
                0x9d0169a8                HTTPPrint_snmp_en
                0x9d016a08                HTTPPrint_status_ok
                0x9d016ab8                HTTPPrint_status_fail
 .text          0x9d016b68     0x199c build/XC32-PIC32_ETH_SK_ETH795/production/_ext/1840844407/DHCPs.o
                0x9d016b68                DHCPServerTask
                0x9d01847c                DHCPServer_Disable
                0x9d0184d0                DHCPServer_Enable
 .text          0x9d018504     0x1998 build/XC32-PIC32_ETH_SK_ETH795/production/_ext/1840844407/DHCP.o
                0x9d018504                DHCPInit
                0x9d018608                DHCPDisable
                0x9d018678                DHCPEnable
                0x9d0186e8                DHCPIsEnabled
                0x9d018720                DHCPIsBound
                0x9d01875c                DHCPStateChanged
                0x9d0187c0                DHCPIsServerDetected
                0x9d0187fc                DHCPTempIPAddr
                0x9d018838                DHCPTask
 .text          0x9d019e9c     0x18ac build/XC32-PIC32_ETH_SK_ETH795/production/_ext/1840844407/DynDNS.o
                0x9d019e9c                DDNSInit
                0x9d019f40                DDNSTask
                0x9d01b62c                DDNSForceUpdate
                0x9d01b670                DDNSSetService
                0x9d01b6f8                DDNSGetLastIP
                0x9d01b724                DDNSGetLastStatus
 .text          0x9d01b748     0x16c8 build/XC32-PIC32_ETH_SK_ETH795/production/_ext/1840844407/MPFS2.o
                0x9d01b748                MPFSInit
                0x9d01b7cc                MPFSOpen
                0x9d01bae8                MPFSOpenID
                0x9d01bc58                MPFSClose
                0x9d01bcc0                MPFSGet
                0x9d01bee4                MPFSGetArray
                0x9d01c170                MPFSGetLong
                0x9d01c1c8                MPFSSeek
                0x9d01c69c                MPFSGetTimestamp
                0x9d01c758                MPFSGetMicrotime
                0x9d01c814                MPFSGetFlags
                0x9d01c8d0                MPFSGetSize
                0x9d01c98c                MPFSGetBytesRem
                0x9d01ca28                MPFSGetStartAddr
                0x9d01cae4                MPFSGetEndAddr
                0x9d01cbb0                MPFSGetFilename
                0x9d01ccb0                MPFSGetPosition
                0x9d01cd1c                MPFSGetID
 .text          0x9d01ce10     0x1638 build/XC32-PIC32_ETH_SK_ETH795/production/_ext/1840844407/Helpers.o
                0x9d01ce10                LFSRSeedRand
                0x9d01ce94                LFSRRand
                0x9d01cf0c                GenerateRandomDWORD
                0x9d01d168                StringToIPAddress
                0x9d01d4d0                Base64Decode
                0x9d01d7fc                Base64Encode
                0x9d01dab4                uitoa
                0x9d01dbe0                hexatob
                0x9d01dcd4                btohexa_high
                0x9d01dd38                btohexa_low
                0x9d01dd9c                stricmppgm2ram
                0x9d01df08                swaps
                0x9d01df54                swapl
                0x9d01e03c                CalcIPChecksum
                0x9d01e124                strupr
                0x9d01e1c0                FormatNetBIOSName
                0x9d01e288                strnchr
                0x9d01e33c                strncpy_m
 .text          0x9d01e448     0x1318 build/XC32-PIC32_ETH_SK_ETH795/production/_ext/1840844407/UDP.o
                0x9d01e448                UDPInit
                0x9d01e4b8                UDPOpenEx
                0x9d01e70c                UDPTask
                0x9d01ec50                UDPIsOpened
                0x9d01eca0                UDPClose
                0x9d01ed48                UDPSetTxBuffer
                0x9d01eda8                UDPSetRxBuffer
                0x9d01edf8                UDPIsPutReady
                0x9d01ee84                UDPPut
                0x9d01ef10                UDPPutArray
                0x9d01efb8                UDPPutString
                0x9d01f010                UDPFlush
                0x9d01f1f4                UDPIsGetReady
                0x9d01f284                UDPGet
                0x9d01f308                UDPGetArray
                0x9d01f3c8                UDPDiscard
                0x9d01f428                UDPProcess
 .text          0x9d01f760     0x1304 build/XC32-PIC32_ETH_SK_ETH795/production/_ext/1840844407/ETHPIC32ExtPhy.o
                0x9d01f760                EthPhyRestartNegotiation
                0x9d01f7f4                EthPhyGetHwConfigFlags
                0x9d01f864                EthPhyInit
                0x9d01fd44                EthPhyNegotiationComplete
                0x9d01ffa4                EthPhyGetNegotiationResult
                0x9d0202e8                EthPhyGetLinkStatus
                0x9d0203c0                EthPhyReset
                0x9d0204cc                EthPhyScanLinkStart
                0x9d020508                EthPhyScanLinkRead
                0x9d020574                EthPhyScanLinkStop
 .text          0x9d020a64      0xf74 build/XC32-PIC32_ETH_SK_ETH795/production/_ext/1840844407/ETHPIC32IntMac.o
                0x9d020a64                MACInit
                0x9d020e78                MACIsLinked
                0x9d020ea0                MACGetTxBaseAddr
                0x9d020ee0                MACGetHttpBaseAddr
                0x9d020f08                MACGetSslBaseAddr
                0x9d020f30                MACSetWritePtr
                0x9d020f68                MACIsTxReady
                0x9d021134                MACPut
                0x9d021170                MACPutArray
                0x9d0211d0                MACPutHeader
                0x9d0212b4                MACFlush
                0x9d021324                MACDiscardRx
                0x9d021384                MACGetHeader
                0x9d0215b0                MACSetReadPtrInRx
                0x9d0215ec                MACSetReadPtr
                0x9d021624                MACGet
                0x9d021658                MACGetArray
                0x9d0216c8                MACGetFreeRxSize
                0x9d021718                MACMemCopyAsync
                0x9d0217bc                MACIsMemCopyDone
                0x9d0217e0                CalcIPBufferChecksum
                0x9d021828                MACCalcRxChecksum
 .text          0x9d0219d8      0xf48 build/XC32-PIC32_ETH_SK_ETH795/production/_ext/1840844407/DNS.o
                0x9d0219d8                DNSBeginUsage
                0x9d021a2c                DNSEndUsage
                0x9d021a9c                DNSResolve
                0x9d021b30                DNSIsResolved

.rodata         0x9d022920      0x7d4
 .rodata        0x9d022920      0x7d4 c:/program files/microchip/xc32/v1.31/bin/../lib/gcc/pic32mx/4.5.2/../../../../pic32mx/lib\libmchp_peripheral_32MX795F512L.a(int_tbl_lib.o)
                0x9d022920                __IntSrcTbl
                0x9d022e3c                __IntVectorTbl

.text           0x9d0230f4     0x2a58
 .text          0x9d0230f4      0x7c4 build/XC32-PIC32_ETH_SK_ETH795/production/_ext/1360937237/Main.o
                0x9d0230f4                _general_exception_handler
                0x9d023120                main
 .text          0x9d0238b8      0x7ac build/XC32-PIC32_ETH_SK_ETH795/production/_ext/1840844407/Hashes.o
                0x9d0238b8                HashAddData
                0x9d023918                MD5Initialize
                0x9d02398c                MD5AddData
                0x9d023d64                MD5Calculate
 .text          0x9d024064      0x72c build/XC32-PIC32_ETH_SK_ETH795/production/_ext/1360937237/artnet.o
                0x9d024410                ART_sendReply
                0x9d024484                ART_Task
 .text          0x9d024790      0x724 build/XC32-PIC32_ETH_SK_ETH795/production/_ext/1840844407/NBNS.o
                0x9d024790                NBNSTask
 .text          0x9d024eb4      0x650 build/XC32-PIC32_ETH_SK_ETH795/production/_ext/1840844407/ICMP.o
                0x9d024eb4                ICMPProcess
                0x9d0250e0                ICMPSendPing
                0x9d025138                ICMPSendPingToHost
                0x9d02519c                ICMPGetReply
                0x9d025484                ICMPBeginUsage
                0x9d0254d8                ICMPEndUsage
 .text          0x9d025504      0x648 build/XC32-PIC32_ETH_SK_ETH795/production/_ext/1840844407/ARP.o
                0x9d025504                ARPSendPkt
                0x9d0256ac                ARPInit
                0x9d025738                ARPProcess
                0x9d0258fc                ARPResolve
                0x9d0259e0                ARPIsResolved
                0x9d025ac0                SwapARPPacket

.rodata         0x9d025b4c      0x548
 .rodata        0x9d025b4c      0x548 build/XC32-PIC32_ETH_SK_ETH795/production/_ext/1840844407/HTTP2.o

.text           0x9d026094     0x13b0
 .text          0x9d026094      0x464 c:/program files/microchip/xc32/v1.31/bin/../lib/gcc/pic32mx/4.5.2\libgcc.a(_umoddi3.o)
                0x9d026094                __umoddi3
 .text          0x9d0264f8      0x448 c:/program files/microchip/xc32/v1.31/bin/../lib/gcc/pic32mx/4.5.2\libgcc.a(_udivdi3.o)
                0x9d0264f8                __udivdi3
 .text          0x9d026940      0x410 build/XC32-PIC32_ETH_SK_ETH795/production/_ext/1840844407/StackTsk.o
                0x9d026940                StackInit
                0x9d026a10                StackTask
                0x9d026d00                StackApplications
 .text          0x9d026d50      0x3ac build/XC32-PIC32_ETH_SK_ETH795/production/_ext/1840844407/Tick.o
                0x9d026d50                TickInit
                0x9d026e94                TickGet
                0x9d026f14                TickGetDiv256
                0x9d026f94                TickGetDiv64K
                0x9d027014                TickConvertToMilliseconds
                0x9d02707c                _T1Interrupt
 .text          0x9d0270fc      0x348 build/XC32-PIC32_ETH_SK_ETH795/production/_ext/1840844407/IP.o
                0x9d0270fc                IPGetHeader
                0x9d02723c                IPPutHeader
                0x9d027368                IPSetRxBuffer

.rodata         0x9d027444      0x31c
 .rodata        0x9d027444      0x31c build/XC32-PIC32_ETH_SK_ETH795/production/_ext/1360937237/HTTPApp.o
                0x9d027598                HTML_UP_ARROW
                0x9d02759c                HTML_DOWN_ARROW

.dinit          0x9d027760      0x300
 .dinit         0x9d027760      0x300 data_init

.text.malloc    0x9d027a60      0x288
 .text.malloc   0x9d027a60      0x288 c:/program files/microchip/xc32/v1.31/bin/../lib/gcc/pic32mx/4.5.2/../../../../pic32mx/lib\libc.a(malloc.o)
                0x9d027a60                malloc

.text.EthRxBuffersAppend
                0x9d027ce8      0x260
 .text.EthRxBuffersAppend
                0x9d027ce8      0x260 c:/program files/microchip/xc32/v1.31/bin/../lib/gcc/pic32mx/4.5.2/../../../../pic32mx/lib\libmchp_peripheral_32MX795F512L.a(eth_rx_buffers_append_lib.o)
                0x9d027ce8                EthRxBuffersAppend

.text._EthAckPacket
                0x9d027f48      0x1dc
 .text._EthAckPacket
                0x9d027f48      0x1dc c:/program files/microchip/xc32/v1.31/bin/../lib/gcc/pic32mx/4.5.2/../../../../pic32mx/lib\libmchp_peripheral_32MX795F512L.a(eth_ack_packet_lib.o)
                0x9d027f48                _EthAckPacket

.rodata         0x9d028124      0x1d8
 .rodata        0x9d028124      0x1d8 build/XC32-PIC32_ETH_SK_ETH795/production/_ext/1840844407/DynDNS.o
                0x9d0281dc                ddnsServiceHosts

.text           0x9d0282fc      0x1c4
 .text          0x9d0282fc      0x1c4 build/XC32-PIC32_ETH_SK_ETH795/production/_ext/1840844407/ETHPIC32ExtPhyDP83848.o
                0x9d0282fc                EthPhyConfigureMII
                0x9d0283a8                EthPhyConfigureMdix
                0x9d028474                EthPhyMIIMAddress
                0x9d028498                EthPhyMIIMClock

.text.realloc   0x9d0284c0      0x194
 .text.realloc  0x9d0284c0      0x194 c:/program files/microchip/xc32/v1.31/bin/../lib/gcc/pic32mx/4.5.2/../../../../pic32mx/lib\libc.a(malloc.o)
                0x9d0284c0                realloc

.text._sbrk_init
                0x9d028654      0x194
 .text._sbrk_init
                0x9d028654      0x194 c:/program files/microchip/xc32/v1.31/bin/../lib/gcc/pic32mx/4.5.2/../../../../pic32mx/lib\libpic32.a(sbrk.o)
                0x9d028654                _sbrk_init

.text._EthRxAckBuffer
                0x9d0287e8      0x184
 .text._EthRxAckBuffer
                0x9d0287e8      0x184 c:/program files/microchip/xc32/v1.31/bin/../lib/gcc/pic32mx/4.5.2/../../../../pic32mx/lib\libmchp_peripheral_32MX795F512L.a(eth_ack_packet_lib.o)

.text.EthRxGetPacket
                0x9d02896c      0x180
 .text.EthRxGetPacket
                0x9d02896c      0x180 c:/program files/microchip/xc32/v1.31/bin/../lib/gcc/pic32mx/4.5.2/../../../../pic32mx/lib\libmchp_peripheral_32MX795F512L.a(eth_rx_get_packet_lib.o)
                0x9d02896c                EthRxGetPacket

.text           0x9d028aec      0x580
 .text          0x9d028aec      0x168 c:/program files/microchip/xc32/v1.31/bin/../lib/gcc/pic32mx/4.5.2/../../../../pic32mx/lib\libpic32.a(memcpy.o)
                0x9d028aec                memcpy
 .text          0x9d028c54      0x168 c:/program files/microchip/xc32/v1.31/bin/../lib/gcc/pic32mx/4.5.2/../../../../pic32mx/lib\libpic32.a(strlen.o)
                0x9d028c54                strlen
 .text          0x9d028dbc      0x158 build/XC32-PIC32_ETH_SK_ETH795/production/_ext/1840844407/Reboot.o
                0x9d028dbc                RebootTask
 .text          0x9d028f14      0x158 build/XC32-PIC32_ETH_SK_ETH795/production/_ext/1360937237/Ping.o
                0x9d028f14                PING_Task

.text.EthTxSendPacket
                0x9d02906c      0x14c
 .text.EthTxSendPacket
                0x9d02906c      0x14c c:/program files/microchip/xc32/v1.31/bin/../lib/gcc/pic32mx/4.5.2/../../../../pic32mx/lib\libmchp_peripheral_32MX795F512L.a(eth_tx_packet_lib.o)
                0x9d02906c                EthTxSendPacket

.text._EthAppendBusyList
                0x9d0291b8      0x144
 .text._EthAppendBusyList
                0x9d0291b8      0x144 c:/program files/microchip/xc32/v1.31/bin/../lib/gcc/pic32mx/4.5.2/../../../../pic32mx/lib\libmchp_peripheral_32MX795F512L.a(_eth_append_busy_list_lib.o)
                0x9d0291b8                _EthAppendBusyList

.rodata         0x9d0292fc      0x140
 .rodata        0x9d0292fc      0x140 build/XC32-PIC32_ETH_SK_ETH795/production/_ext/1840844407/Hashes.o

.text.EthDescriptorsPoolAdd
                0x9d02943c      0x134
 .text.EthDescriptorsPoolAdd
                0x9d02943c      0x134 c:/program files/microchip/xc32/v1.31/bin/../lib/gcc/pic32mx/4.5.2/../../../../pic32mx/lib\libmchp_peripheral_32MX795F512L.a(eth_descriptors_add_lib.o)
                0x9d02943c                EthDescriptorsPoolAdd

.text.EthDescriptorsAdd
                0x9d029570      0x12c
 .text.EthDescriptorsAdd
                0x9d029570      0x12c c:/program files/microchip/xc32/v1.31/bin/../lib/gcc/pic32mx/4.5.2/../../../../pic32mx/lib\libmchp_peripheral_32MX795F512L.a(eth_descriptors_add_lib.o)
                0x9d029570                EthDescriptorsAdd

.text           0x9d02969c      0x120
 .text          0x9d02969c      0x120 c:/program files/microchip/xc32/v1.31/bin/../lib/gcc/pic32mx/4.5.2/../../../../pic32mx/lib\libpic32.a(strcmp.o)
                0x9d02969c                strcmp

.rodata         0x9d0297bc      0x104
 .rodata        0x9d0297bc      0x104 c:/program files/microchip/xc32/v1.31/bin/../lib/gcc/pic32mx/4.5.2/../../../../pic32mx/lib\libc.a(ctype.o)
                0x9d0297bc                _ctype

.text           0x9d0298c0       0xf0
 .text          0x9d0298c0       0xf0 build/XC32-PIC32_ETH_SK_ETH795/production/_ext/1840844407/Delay.o
                0x9d0298c0                DelayMs
                0x9d029954                Delay10us

.text.general_exception
                0x9d0299b0       0xdc
 .text.general_exception
                0x9d0299b0       0xdc c:/program files/microchip/xc32/v1.31/bin/../lib/gcc/pic32mx/4.5.2/../../../../pic32mx/lib\libpic32.a(general-exception.o)
                0x9d0299b0                _general_exception_context

.text._sbrk     0x9d029a8c       0xc4
 .text._sbrk    0x9d029a8c       0xc4 c:/program files/microchip/xc32/v1.31/bin/../lib/gcc/pic32mx/4.5.2/../../../../pic32mx/lib\libpic32.a(sbrk.o)
                0x9d029a8c                _sbrk

.text.EthTxSendBuffer
                0x9d029b50       0xc0
 .text.EthTxSendBuffer
                0x9d029b50       0xc0 c:/program files/microchip/xc32/v1.31/bin/../lib/gcc/pic32mx/4.5.2/../../../../pic32mx/lib\libmchp_peripheral_32MX795F512L.a(eth_tx_packet_lib.o)
                0x9d029b50                EthTxSendBuffer

.text.EthInit   0x9d029c10       0xb4
 .text.EthInit  0x9d029c10       0xb4 c:/program files/microchip/xc32/v1.31/bin/../lib/gcc/pic32mx/4.5.2/../../../../pic32mx/lib\libmchp_peripheral_32MX795F512L.a(eth_init_lib.o)
                0x9d029c10                EthInit

.text.EthMACOpen
                0x9d029cc4       0xb4
 .text.EthMACOpen
                0x9d029cc4       0xb4 c:/program files/microchip/xc32/v1.31/bin/../lib/gcc/pic32mx/4.5.2/../../../../pic32mx/lib\libmchp_peripheral_32MX795F512L.a(eth_mac_open_lib.o)
                0x9d029cc4                EthMACOpen

.text._EthTxSchedBuffer
                0x9d029d78       0xac
 .text._EthTxSchedBuffer
                0x9d029d78       0xac c:/program files/microchip/xc32/v1.31/bin/../lib/gcc/pic32mx/4.5.2/../../../../pic32mx/lib\libmchp_peripheral_32MX795F512L.a(eth_tx_packet_lib.o)

.text           0x9d029e24       0xa8
 .text          0x9d029e24       0xa8 c:/program files/microchip/xc32/v1.31/bin/../lib/gcc/pic32mx/4.5.2/../../../../pic32mx/lib\libpic32.a(memset.o)
                0x9d029e24                memset

.text.atol      0x9d029ecc       0xa8
 .text.atol     0x9d029ecc       0xa8 c:/program files/microchip/xc32/v1.31/bin/../lib/gcc/pic32mx/4.5.2/../../../../pic32mx/lib\libc.a(atol.o)
                0x9d029ecc                atol

.text           0x9d029f74       0x98
 .text          0x9d029f74       0x98 c:/program files/microchip/xc32/v1.31/bin/../lib/gcc/pic32mx/4.5.2/../../../../pic32mx/lib\libpic32.a(memcmp.o)
                0x9d029f74                memcmp

.text._EthTxSchedList
                0x9d02a00c       0x8c
 .text._EthTxSchedList
                0x9d02a00c       0x8c c:/program files/microchip/xc32/v1.31/bin/../lib/gcc/pic32mx/4.5.2/../../../../pic32mx/lib\libmchp_peripheral_32MX795F512L.a(eth_tx_packet_lib.o)

.text.EthMIIMConfig
                0x9d02a098       0x80
 .text.EthMIIMConfig
                0x9d02a098       0x80 c:/program files/microchip/xc32/v1.31/bin/../lib/gcc/pic32mx/4.5.2/../../../../pic32mx/lib\libmchp_peripheral_32MX795F512L.a(eth_miim_access.o)
                0x9d02a098                EthMIIMConfig

.text.SoftReset
                0x9d02a118       0x78
 .text.SoftReset
                0x9d02a118       0x78 c:/program files/microchip/xc32/v1.31/bin/../lib/gcc/pic32mx/4.5.2/../../../../pic32mx/lib\libmchp_peripheral_32MX795F512L.a(soft_reset_lib.o)
                0x9d02a118                SoftReset

.text.EthTxGetBufferStatus
                0x9d02a190       0x70
 .text.EthTxGetBufferStatus
                0x9d02a190       0x70 c:/program files/microchip/xc32/v1.31/bin/../lib/gcc/pic32mx/4.5.2/../../../../pic32mx/lib\libmchp_peripheral_32MX795F512L.a(eth_tx_packet_lib.o)
                0x9d02a190                EthTxGetBufferStatus

.text.EthRxFiltersPMSet
                0x9d02a200       0x6c
 .text.EthRxFiltersPMSet
                0x9d02a200       0x6c c:/program files/microchip/xc32/v1.31/bin/../lib/gcc/pic32mx/4.5.2/../../../../pic32mx/lib\libmchp_peripheral_32MX795F512L.a(eth_rx_filters_lib.o)
                0x9d02a200                EthRxFiltersPMSet

.text.calloc    0x9d02a26c       0x5c
 .text.calloc   0x9d02a26c       0x5c c:/program files/microchip/xc32/v1.31/bin/../lib/gcc/pic32mx/4.5.2/../../../../pic32mx/lib\libc.a(calloc.o)
                0x9d02a26c                calloc

.text.strncpy   0x9d02a2c8       0x58
 .text.strncpy  0x9d02a2c8       0x58 c:/program files/microchip/xc32/v1.31/bin/../lib/gcc/pic32mx/4.5.2/../../../../pic32mx/lib\libc.a(strncpy.o)
                0x9d02a2c8                strncpy

.rodata         0x9d02a320       0x54
 .rodata        0x9d02a320       0x54 c:/program files/microchip/xc32/v1.31/bin/../lib/gcc/pic32mx/4.5.2/../../../../pic32mx/lib\libmchp_peripheral_32MX795F512L.a(_ports_tbl_libp.o)
                0x9d02a320                PortRegTbl

.text.INTEnable
                0x9d02a374       0x50
 .text.INTEnable
                0x9d02a374       0x50 c:/program files/microchip/xc32/v1.31/bin/../lib/gcc/pic32mx/4.5.2/../../../../pic32mx/lib\libmchp_peripheral_32MX795F512L.a(int_tbl_lib.o)
                0x9d02a374                INTEnable

.text.sbrk      0x9d02a3c4       0x50
 .text.sbrk     0x9d02a3c4       0x50 c:/program files/microchip/xc32/v1.31/bin/../lib/gcc/pic32mx/4.5.2/../../../../pic32mx/lib\libpic32.a(sbrk.o)
                0x9d02a3c4                sbrk

.text.main_entry
                0x9d02a414       0x4c
 .text.main_entry
                0x9d02a414       0x4c c:/program files/microchip/xc32/v1.31/bin/../lib/gcc/pic32mx/4.5.2/../../../../pic32mx/lib/./proc/32MX795F512L/crt0_mips32r2.o
                0x9d02a440                __crt0_exit

.text.EthMACSetAddress
                0x9d02a460       0x48
 .text.EthMACSetAddress
                0x9d02a460       0x48 c:/program files/microchip/xc32/v1.31/bin/../lib/gcc/pic32mx/4.5.2/../../../../pic32mx/lib\libmchp_peripheral_32MX795F512L.a(eth_mac_set_address_max_lib.o)
                0x9d02a460                EthMACSetAddress

.text.EthMACGetAddress
                0x9d02a4a8       0x44
 .text.EthMACGetAddress
                0x9d02a4a8       0x44 c:/program files/microchip/xc32/v1.31/bin/../lib/gcc/pic32mx/4.5.2/../../../../pic32mx/lib\libmchp_peripheral_32MX795F512L.a(eth_mac_set_address_max_lib.o)
                0x9d02a4a8                EthMACGetAddress

.text           0x9d02a4ec       0x44
 .text          0x9d02a4ec       0x44 c:/program files/microchip/xc32/v1.31/bin/../lib/gcc/pic32mx/4.5.2/../../../../pic32mx/lib\libpic32.a(pic32_software_reset.o)
                0x9d02a4ec                __pic32_software_reset

.text.EthMIIMReadStart
                0x9d02a530       0x40
 .text.EthMIIMReadStart
                0x9d02a530       0x40 c:/program files/microchip/xc32/v1.31/bin/../lib/gcc/pic32mx/4.5.2/../../../../pic32mx/lib\libmchp_peripheral_32MX795F512L.a(eth_miim_access.o)
                0x9d02a530                EthMIIMReadStart

.text.EthRxGetBuffer
                0x9d02a570       0x3c
 .text.EthRxGetBuffer
                0x9d02a570       0x3c c:/program files/microchip/xc32/v1.31/bin/../lib/gcc/pic32mx/4.5.2/../../../../pic32mx/lib\libmchp_peripheral_32MX795F512L.a(eth_rx_get_packet_lib.o)
                0x9d02a570                EthRxGetBuffer

.text.PORTSetPinsDigitalIn
                0x9d02a5ac       0x3c
 .text.PORTSetPinsDigitalIn
                0x9d02a5ac       0x3c c:/program files/microchip/xc32/v1.31/bin/../lib/gcc/pic32mx/4.5.2/../../../../pic32mx/lib\libmchp_peripheral_32MX795F512L.a(port_set_pins_digital_in_lib.o)
                0x9d02a5ac                PORTSetPinsDigitalIn

.text.PORTSetPinsDigitalOut
                0x9d02a5e8       0x3c
 .text.PORTSetPinsDigitalOut
                0x9d02a5e8       0x3c c:/program files/microchip/xc32/v1.31/bin/../lib/gcc/pic32mx/4.5.2/../../../../pic32mx/lib\libmchp_peripheral_32MX795F512L.a(port_set_pins_digital_out_lib.o)
                0x9d02a5e8                PORTSetPinsDigitalOut

.rodata         0x9d02a624       0x38
 .rodata        0x9d02a624       0x38 build/XC32-PIC32_ETH_SK_ETH795/production/_ext/1840844407/TCP.o
                0x9d02a624                TCPSocketInitializer

.text._EthFindPacket
                0x9d02a65c       0x38
 .text._EthFindPacket
                0x9d02a65c       0x38 c:/program files/microchip/xc32/v1.31/bin/../lib/gcc/pic32mx/4.5.2/../../../../pic32mx/lib\libmchp_peripheral_32MX795F512L.a(eth_tx_packet_lib.o)
                0x9d02a65c                _EthFindPacket

.text.EthMIIMWriteStart
                0x9d02a694       0x38
 .text.EthMIIMWriteStart
                0x9d02a694       0x38 c:/program files/microchip/xc32/v1.31/bin/../lib/gcc/pic32mx/4.5.2/../../../../pic32mx/lib\libmchp_peripheral_32MX795F512L.a(eth_miim_access.o)
                0x9d02a694                EthMIIMWriteStart

.text.INTSetVectorPriority
                0x9d02a6cc       0x38
 .text.INTSetVectorPriority
                0x9d02a6cc       0x38 c:/program files/microchip/xc32/v1.31/bin/../lib/gcc/pic32mx/4.5.2/../../../../pic32mx/lib\libmchp_peripheral_32MX795F512L.a(int_tbl_lib.o)
                0x9d02a6cc                INTSetVectorPriority

.text.INTSetVectorSubPriority
                0x9d02a704       0x38
 .text.INTSetVectorSubPriority
                0x9d02a704       0x38 c:/program files/microchip/xc32/v1.31/bin/../lib/gcc/pic32mx/4.5.2/../../../../pic32mx/lib\libmchp_peripheral_32MX795F512L.a(int_tbl_lib.o)
                0x9d02a704                INTSetVectorSubPriority

.text._bootstrap_exception_handler
                0x9d02a73c       0x38
 .text._bootstrap_exception_handler
                0x9d02a73c       0x38 c:/program files/microchip/xc32/v1.31/bin/../lib/gcc/pic32mx/4.5.2/../../../../pic32mx/lib\libpic32.a(default-bootstrap-exception-handler.o)
                0x9d02a73c                _bootstrap_exception_handler

.text.EthMIIMScanStart
                0x9d02a774       0x34
 .text.EthMIIMScanStart
                0x9d02a774       0x34 c:/program files/microchip/xc32/v1.31/bin/../lib/gcc/pic32mx/4.5.2/../../../../pic32mx/lib\libmchp_peripheral_32MX795F512L.a(eth_miim_access.o)
                0x9d02a774                EthMIIMScanStart

.text.INTEnableSystemMultiVectoredInt
                0x9d02a7a8       0x34
 .text.INTEnableSystemMultiVectoredInt
                0x9d02a7a8       0x34 c:/program files/microchip/xc32/v1.31/bin/../lib/gcc/pic32mx/4.5.2/../../../../pic32mx/lib\libmchp_peripheral_32MX795F512L.a(int_enable_mv_int_lib.o)
                0x9d02a7a8                INTEnableSystemMultiVectoredInt

.rodata         0x9d02a7dc       0x30
 .rodata        0x9d02a7dc       0x30 build/XC32-PIC32_ETH_SK_ETH795/production/_ext/1360937237/artnet.o

.text.EthTxAcknowledgeBuffer
                0x9d02a80c       0x30
 .text.EthTxAcknowledgeBuffer
                0x9d02a80c       0x30 c:/program files/microchip/xc32/v1.31/bin/../lib/gcc/pic32mx/4.5.2/../../../../pic32mx/lib\libmchp_peripheral_32MX795F512L.a(eth_ack_packet_lib.o)
                0x9d02a80c                EthTxAcknowledgeBuffer

.text.EthTxAckBuffer
                0x9d02a83c       0x30
 .text.EthTxAckBuffer
                0x9d02a83c       0x30 c:/program files/microchip/xc32/v1.31/bin/../lib/gcc/pic32mx/4.5.2/../../../../pic32mx/lib\libmchp_peripheral_32MX795F512L.a(eth_ack_packet_lib.o)
                0x9d02a83c                EthTxAckBuffer

.text.EthRxSetBufferSize
                0x9d02a86c       0x30
 .text.EthRxSetBufferSize
                0x9d02a86c       0x30 c:/program files/microchip/xc32/v1.31/bin/../lib/gcc/pic32mx/4.5.2/../../../../pic32mx/lib\libmchp_peripheral_32MX795F512L.a(eth_rx_set_buffer_size_lib.o)
                0x9d02a86c                EthRxSetBufferSize

.vector_default
                0x9d02a89c       0x30
 .vector_default
                0x9d02a89c       0x30 c:/program files/microchip/xc32/v1.31/bin/../lib/gcc/pic32mx/4.5.2/../../../../pic32mx/lib\libpic32.a(defaultinterrupt.o)
                0x9d02a89c                _DefaultInterrupt

.text.free      0x9d02a8cc       0x30
 .text.free     0x9d02a8cc       0x30 c:/program files/microchip/xc32/v1.31/bin/../lib/gcc/pic32mx/4.5.2/../../../../pic32mx/lib\libc.a(malloc.o)
                0x9d02a8cc                free

.text.INTGetVectorPriority
                0x9d02a8fc       0x2c
 .text.INTGetVectorPriority
                0x9d02a8fc       0x2c c:/program files/microchip/xc32/v1.31/bin/../lib/gcc/pic32mx/4.5.2/../../../../pic32mx/lib\libmchp_peripheral_32MX795F512L.a(int_tbl_lib.o)
                0x9d02a8fc                INTGetVectorPriority

.text.INTGetVectorSubPriority
                0x9d02a928       0x2c
 .text.INTGetVectorSubPriority
                0x9d02a928       0x2c c:/program files/microchip/xc32/v1.31/bin/../lib/gcc/pic32mx/4.5.2/../../../../pic32mx/lib\libmchp_peripheral_32MX795F512L.a(int_tbl_lib.o)
                0x9d02a928                INTGetVectorSubPriority

.text._stub_sbd_memlayout
                0x9d02a954       0x2c
 .text._stub_sbd_memlayout
                0x9d02a954       0x2c c:/program files/microchip/xc32/v1.31/bin/../lib/gcc/pic32mx/4.5.2/../../../../pic32mx/lib\libpic32.a(sbrk.o)
                0x9d02a954                _sbd_memlayout
                0x9d02a954                _stub_sbd_memlayout

.text.EthMIIMReadResult
                0x9d02a980       0x28
 .text.EthMIIMReadResult
                0x9d02a980       0x28 c:/program files/microchip/xc32/v1.31/bin/../lib/gcc/pic32mx/4.5.2/../../../../pic32mx/lib\libmchp_peripheral_32MX795F512L.a(eth_miim_access.o)
                0x9d02a980                EthMIIMReadResult

.text.INTClearFlag
                0x9d02a9a8       0x28
 .text.INTClearFlag
                0x9d02a9a8       0x28 c:/program files/microchip/xc32/v1.31/bin/../lib/gcc/pic32mx/4.5.2/../../../../pic32mx/lib\libmchp_peripheral_32MX795F512L.a(int_tbl_lib.o)
                0x9d02a9a8                INTClearFlag

.text.INTSetFlag
                0x9d02a9d0       0x28
 .text.INTSetFlag
                0x9d02a9d0       0x28 c:/program files/microchip/xc32/v1.31/bin/../lib/gcc/pic32mx/4.5.2/../../../../pic32mx/lib\libmchp_peripheral_32MX795F512L.a(int_tbl_lib.o)
                0x9d02a9d0                INTSetFlag

.text.INTGetFlag
                0x9d02a9f8       0x28
 .text.INTGetFlag
                0x9d02a9f8       0x28 c:/program files/microchip/xc32/v1.31/bin/../lib/gcc/pic32mx/4.5.2/../../../../pic32mx/lib\libmchp_peripheral_32MX795F512L.a(int_tbl_lib.o)
                0x9d02a9f8                INTGetFlag

.text.INTGetEnable
                0x9d02aa20       0x28
 .text.INTGetEnable
                0x9d02aa20       0x28 c:/program files/microchip/xc32/v1.31/bin/../lib/gcc/pic32mx/4.5.2/../../../../pic32mx/lib\libmchp_peripheral_32MX795F512L.a(int_tbl_lib.o)
                0x9d02aa20                INTGetEnable

.text.EthMIIMScanResult
                0x9d02aa48       0x20
 .text.EthMIIMScanResult
                0x9d02aa48       0x20 c:/program files/microchip/xc32/v1.31/bin/../lib/gcc/pic32mx/4.5.2/../../../../pic32mx/lib\libmchp_peripheral_32MX795F512L.a(eth_miim_access.o)
                0x9d02aa48                EthMIIMScanResult

.text.EthRxAcknowledgeBuffer
                0x9d02aa68       0x1c
 .text.EthRxAcknowledgeBuffer
                0x9d02aa68       0x1c c:/program files/microchip/xc32/v1.31/bin/../lib/gcc/pic32mx/4.5.2/../../../../pic32mx/lib\libmchp_peripheral_32MX795F512L.a(eth_ack_packet_lib.o)
                0x9d02aa68                EthRxAcknowledgeBuffer

.text.EthRxAckBuffer
                0x9d02aa84       0x1c
 .text.EthRxAckBuffer
                0x9d02aa84       0x1c c:/program files/microchip/xc32/v1.31/bin/../lib/gcc/pic32mx/4.5.2/../../../../pic32mx/lib\libmchp_peripheral_32MX795F512L.a(eth_ack_packet_lib.o)
                0x9d02aa84                EthRxAckBuffer

.text.INTRestoreInterrupts
                0x9d02aaa0       0x1c
 .text.INTRestoreInterrupts
                0x9d02aaa0       0x1c c:/program files/microchip/xc32/v1.31/bin/../lib/gcc/pic32mx/4.5.2/../../../../pic32mx/lib\libmchp_peripheral_32MX795F512L.a(int_restore_interrupts_lib.o)
                0x9d02aaa0                INTRestoreInterrupts

.text.EthRxFiltersHTSet
                0x9d02aabc       0x18
 .text.EthRxFiltersHTSet
                0x9d02aabc       0x18 c:/program files/microchip/xc32/v1.31/bin/../lib/gcc/pic32mx/4.5.2/../../../../pic32mx/lib\libmchp_peripheral_32MX795F512L.a(eth_rx_filters_lib.o)
                0x9d02aabc                EthRxFiltersHTSet

.text.CheKseg0CacheOff
                0x9d02aad4       0x18
 .text.CheKseg0CacheOff
                0x9d02aad4       0x18 c:/program files/microchip/xc32/v1.31/bin/../lib/gcc/pic32mx/4.5.2/../../../../pic32mx/lib\libmchp_peripheral_32MX795F512L.a(pcache.o)
                0x9d02aad4                CheKseg0CacheOff

.text.CheKseg0CacheOn
                0x9d02aaec       0x18
 .text.CheKseg0CacheOn
                0x9d02aaec       0x18 c:/program files/microchip/xc32/v1.31/bin/../lib/gcc/pic32mx/4.5.2/../../../../pic32mx/lib\libmchp_peripheral_32MX795F512L.a(pcache.o)
                0x9d02aaec                CheKseg0CacheOn

.text           0x9d02ab04       0x18
 .text          0x9d02ab04       0x18 c:/program files/microchip/xc32/v1.31/bin/../lib/gcc/pic32mx/4.5.2/../../../../pic32mx/lib\libpic32.a(default-nmi-handler.o)
                0x9d02ab04                _nmi_handler

.rodata         0x9d02ab1c       0x28
 .rodata        0x9d02ab1c       0x14 build/XC32-PIC32_ETH_SK_ETH795/production/_ext/1360937237/Main.o
 .rodata        0x9d02ab30       0x14 build/XC32-PIC32_ETH_SK_ETH795/production/_ext/1360937237/Ping.o

.text.EthMACSetMaxFrame
                0x9d02ab44       0x14
 .text.EthMACSetMaxFrame
                0x9d02ab44       0x14 c:/program files/microchip/xc32/v1.31/bin/../lib/gcc/pic32mx/4.5.2/../../../../pic32mx/lib\libmchp_peripheral_32MX795F512L.a(eth_mac_set_address_max_lib.o)
                0x9d02ab44                EthMACSetMaxFrame

.text.EthRxFiltersPMClr
                0x9d02ab58       0x14
 .text.EthRxFiltersPMClr
                0x9d02ab58       0x14 c:/program files/microchip/xc32/v1.31/bin/../lib/gcc/pic32mx/4.5.2/../../../../pic32mx/lib\libmchp_peripheral_32MX795F512L.a(eth_rx_filters_lib.o)
                0x9d02ab58                EthRxFiltersPMClr

.text.EthRxFiltersSet
                0x9d02ab6c       0x10
 .text.EthRxFiltersSet
                0x9d02ab6c       0x10 c:/program files/microchip/xc32/v1.31/bin/../lib/gcc/pic32mx/4.5.2/../../../../pic32mx/lib\libmchp_peripheral_32MX795F512L.a(eth_rx_filters_lib.o)
                0x9d02ab6c                EthRxFiltersSet

.text.EthRxFiltersClr
                0x9d02ab7c       0x10
 .text.EthRxFiltersClr
                0x9d02ab7c       0x10 c:/program files/microchip/xc32/v1.31/bin/../lib/gcc/pic32mx/4.5.2/../../../../pic32mx/lib\libmchp_peripheral_32MX795F512L.a(eth_rx_filters_lib.o)
                0x9d02ab7c                EthRxFiltersClr

.text.EthRxFiltersWrite
                0x9d02ab8c       0x10
 .text.EthRxFiltersWrite
                0x9d02ab8c       0x10 c:/program files/microchip/xc32/v1.31/bin/../lib/gcc/pic32mx/4.5.2/../../../../pic32mx/lib\libmchp_peripheral_32MX795F512L.a(eth_rx_filters_lib.o)
                0x9d02ab8c                EthRxFiltersWrite

.rodata         0x9d02ab9c       0x20
 .rodata        0x9d02ab9c       0x10 c:/program files/microchip/xc32/v1.31/bin/../lib/gcc/pic32mx/4.5.2/../../../../pic32mx/lib\libmchp_peripheral_32MX795F512L.a(eth_miim_access.o)
 .rodata        0x9d02abac        0x8 build/XC32-PIC32_ETH_SK_ETH795/production/_ext/1840844407/ETHPIC32IntMac.o
 .rodata        0x9d02abb4        0x8 build/XC32-PIC32_ETH_SK_ETH795/production/_ext/1840844407/MPFS2.o

.text.ReadCoreTimer
                0x9d02abbc        0x8
 .text.ReadCoreTimer
                0x9d02abbc        0x8 c:/program files/microchip/xc32/v1.31/bin/../lib/gcc/pic32mx/4.5.2/../../../../pic32mx/lib\libmchp_peripheral.a(read_core_timer_lib.o)
                0x9d02abbc                ReadCoreTimer

.text.INTDisableInterrupts
                0x9d02abc4        0x8
 .text.INTDisableInterrupts
                0x9d02abc4        0x8 c:/program files/microchip/xc32/v1.31/bin/../lib/gcc/pic32mx/4.5.2/../../../../pic32mx/lib\libmchp_peripheral_32MX795F512L.a(int_disable_interrupts_lib.o)
                0x9d02abc4                INTDisableInterrupts

.text.INTEnableInterrupts
                0x9d02abcc        0x8
 .text.INTEnableInterrupts
                0x9d02abcc        0x8 c:/program files/microchip/xc32/v1.31/bin/../lib/gcc/pic32mx/4.5.2/../../../../pic32mx/lib\libmchp_peripheral_32MX795F512L.a(int_enable_interrupts_lib.o)
                0x9d02abcc                INTEnableInterrupts

.text._on_reset
                0x9d02abd4        0x8
 .text._on_reset
                0x9d02abd4        0x8 c:/program files/microchip/xc32/v1.31/bin/../lib/gcc/pic32mx/4.5.2/../../../../pic32mx/lib\libpic32.a(default-on-reset.o)
                0x9d02abd4                _on_reset

.text._on_bootstrap
                0x9d02abdc        0x8
 .text._on_bootstrap
                0x9d02abdc        0x8 c:/program files/microchip/xc32/v1.31/bin/../lib/gcc/pic32mx/4.5.2/../../../../pic32mx/lib\libpic32.a(default-on-bootstrap.o)
                0x9d02abdc                _on_bootstrap

.text.getpagesize
                0x9d02abe4        0x8
 .text.getpagesize
                0x9d02abe4        0x8 c:/program files/microchip/xc32/v1.31/bin/../lib/gcc/pic32mx/4.5.2/../../../../pic32mx/lib\libpic32.a(sbrk.o)
                0x9d02abe4                getpagesize

.text%z284      0x00000000        0x0
 .text          0x00000000        0x0 c:/program files/microchip/xc32/v1.31/bin/../lib/gcc/pic32mx/4.5.2/../../../../pic32mx/lib\debug-exception-return.o

.text%z285      0x00000000        0x0
 .text          0x00000000        0x0 c:/program files/microchip/xc32/v1.31/bin/../lib/gcc/pic32mx/4.5.2/../../../../pic32mx/lib\libpic32.a(errno.o)

.text%z286      0x00000000        0x0
 .text          0x00000000        0x0 c:/program files/microchip/xc32/v1.31/bin/../lib/gcc/pic32mx/4.5.2/../../../../pic32mx/lib\libpic32.a(sbrk.o)

.text%z287      0x00000000        0x0
 .text          0x00000000        0x0 c:/program files/microchip/xc32/v1.31/bin/../lib/gcc/pic32mx/4.5.2/../../../../pic32mx/lib\libc.a(strncpy.o)

.text%z288      0x00000000        0x0
 .text          0x00000000        0x0 c:/program files/microchip/xc32/v1.31/bin/../lib/gcc/pic32mx/4.5.2/../../../../pic32mx/lib\libc.a(malloc.o)

.text%z289      0x00000000        0x0
 .text          0x00000000        0x0 c:/program files/microchip/xc32/v1.31/bin/../lib/gcc/pic32mx/4.5.2/../../../../pic32mx/lib\libc.a(ctype.o)

.text%z290      0x00000000        0x0
 .text          0x00000000        0x0 c:/program files/microchip/xc32/v1.31/bin/../lib/gcc/pic32mx/4.5.2/../../../../pic32mx/lib\libc.a(calloc.o)

.text%z291      0x00000000        0x0
 .text          0x00000000        0x0 c:/program files/microchip/xc32/v1.31/bin/../lib/gcc/pic32mx/4.5.2/../../../../pic32mx/lib\libc.a(atol.o)

.text%z292      0x00000000        0x0
 .text          0x00000000        0x0 c:/program files/microchip/xc32/v1.31/bin/../lib/gcc/pic32mx/4.5.2/../../../../pic32mx/lib\libpic32.a(defaultinterrupt.o)

.text%z293      0x00000000        0x0
 .text          0x00000000        0x0 c:/program files/microchip/xc32/v1.31/bin/../lib/gcc/pic32mx/4.5.2/../../../../pic32mx/lib\libpic32.a(vector63.o)

.text%z294      0x00000000        0x0
 .text          0x00000000        0x0 c:/program files/microchip/xc32/v1.31/bin/../lib/gcc/pic32mx/4.5.2/../../../../pic32mx/lib\libpic32.a(vector62.o)

.text%z295      0x00000000        0x0
 .text          0x00000000        0x0 c:/program files/microchip/xc32/v1.31/bin/../lib/gcc/pic32mx/4.5.2/../../../../pic32mx/lib\libpic32.a(vector61.o)

.text%z296      0x00000000        0x0
 .text          0x00000000        0x0 c:/program files/microchip/xc32/v1.31/bin/../lib/gcc/pic32mx/4.5.2/../../../../pic32mx/lib\libpic32.a(vector60.o)

.text%z297      0x00000000        0x0
 .text          0x00000000        0x0 c:/program files/microchip/xc32/v1.31/bin/../lib/gcc/pic32mx/4.5.2/../../../../pic32mx/lib\libpic32.a(vector59.o)

.text%z298      0x00000000        0x0
 .text          0x00000000        0x0 c:/program files/microchip/xc32/v1.31/bin/../lib/gcc/pic32mx/4.5.2/../../../../pic32mx/lib\libpic32.a(vector58.o)

.text%z299      0x00000000        0x0
 .text          0x00000000        0x0 c:/program files/microchip/xc32/v1.31/bin/../lib/gcc/pic32mx/4.5.2/../../../../pic32mx/lib\libpic32.a(vector57.o)

.text%z300      0x00000000        0x0
 .text          0x00000000        0x0 c:/program files/microchip/xc32/v1.31/bin/../lib/gcc/pic32mx/4.5.2/../../../../pic32mx/lib\libpic32.a(vector56.o)

.text%z301      0x00000000        0x0
 .text          0x00000000        0x0 c:/program files/microchip/xc32/v1.31/bin/../lib/gcc/pic32mx/4.5.2/../../../../pic32mx/lib\libpic32.a(vector55.o)

.text%z302      0x00000000        0x0
 .text          0x00000000        0x0 c:/program files/microchip/xc32/v1.31/bin/../lib/gcc/pic32mx/4.5.2/../../../../pic32mx/lib\libpic32.a(vector54.o)

.text%z303      0x00000000        0x0
 .text          0x00000000        0x0 c:/program files/microchip/xc32/v1.31/bin/../lib/gcc/pic32mx/4.5.2/../../../../pic32mx/lib\libpic32.a(vector53.o)

.text%z304      0x00000000        0x0
 .text          0x00000000        0x0 c:/program files/microchip/xc32/v1.31/bin/../lib/gcc/pic32mx/4.5.2/../../../../pic32mx/lib\libpic32.a(vector52.o)

.text%z305      0x00000000        0x0
 .text          0x00000000        0x0 c:/program files/microchip/xc32/v1.31/bin/../lib/gcc/pic32mx/4.5.2/../../../../pic32mx/lib\libpic32.a(vector51.o)

.text%z306      0x00000000        0x0
 .text          0x00000000        0x0 c:/program files/microchip/xc32/v1.31/bin/../lib/gcc/pic32mx/4.5.2/../../../../pic32mx/lib\libpic32.a(vector50.o)

.text%z307      0x00000000        0x0
 .text          0x00000000        0x0 c:/program files/microchip/xc32/v1.31/bin/../lib/gcc/pic32mx/4.5.2/../../../../pic32mx/lib\libpic32.a(vector49.o)

.text%z308      0x00000000        0x0
 .text          0x00000000        0x0 c:/program files/microchip/xc32/v1.31/bin/../lib/gcc/pic32mx/4.5.2/../../../../pic32mx/lib\libpic32.a(vector48.o)

.text%z309      0x00000000        0x0
 .text          0x00000000        0x0 c:/program files/microchip/xc32/v1.31/bin/../lib/gcc/pic32mx/4.5.2/../../../../pic32mx/lib\libpic32.a(vector47.o)

.text%z310      0x00000000        0x0
 .text          0x00000000        0x0 c:/program files/microchip/xc32/v1.31/bin/../lib/gcc/pic32mx/4.5.2/../../../../pic32mx/lib\libpic32.a(vector46.o)

.text%z311      0x00000000        0x0
 .text          0x00000000        0x0 c:/program files/microchip/xc32/v1.31/bin/../lib/gcc/pic32mx/4.5.2/../../../../pic32mx/lib\libpic32.a(vector45.o)

.text%z312      0x00000000        0x0
 .text          0x00000000        0x0 c:/program files/microchip/xc32/v1.31/bin/../lib/gcc/pic32mx/4.5.2/../../../../pic32mx/lib\libpic32.a(vector44.o)

.text%z313      0x00000000        0x0
 .text          0x00000000        0x0 c:/program files/microchip/xc32/v1.31/bin/../lib/gcc/pic32mx/4.5.2/../../../../pic32mx/lib\libpic32.a(vector43.o)

.text%z314      0x00000000        0x0
 .text          0x00000000        0x0 c:/program files/microchip/xc32/v1.31/bin/../lib/gcc/pic32mx/4.5.2/../../../../pic32mx/lib\libpic32.a(vector42.o)

.text%z315      0x00000000        0x0
 .text          0x00000000        0x0 c:/program files/microchip/xc32/v1.31/bin/../lib/gcc/pic32mx/4.5.2/../../../../pic32mx/lib\libpic32.a(vector41.o)

.text%z316      0x00000000        0x0
 .text          0x00000000        0x0 c:/program files/microchip/xc32/v1.31/bin/../lib/gcc/pic32mx/4.5.2/../../../../pic32mx/lib\libpic32.a(vector40.o)

.text%z317      0x00000000        0x0
 .text          0x00000000        0x0 c:/program files/microchip/xc32/v1.31/bin/../lib/gcc/pic32mx/4.5.2/../../../../pic32mx/lib\libpic32.a(vector39.o)

.text%z318      0x00000000        0x0
 .text          0x00000000        0x0 c:/program files/microchip/xc32/v1.31/bin/../lib/gcc/pic32mx/4.5.2/../../../../pic32mx/lib\libpic32.a(vector38.o)

.text%z319      0x00000000        0x0
 .text          0x00000000        0x0 c:/program files/microchip/xc32/v1.31/bin/../lib/gcc/pic32mx/4.5.2/../../../../pic32mx/lib\libpic32.a(vector37.o)

.text%z320      0x00000000        0x0
 .text          0x00000000        0x0 c:/program files/microchip/xc32/v1.31/bin/../lib/gcc/pic32mx/4.5.2/../../../../pic32mx/lib\libpic32.a(vector36.o)

.text%z321      0x00000000        0x0
 .text          0x00000000        0x0 c:/program files/microchip/xc32/v1.31/bin/../lib/gcc/pic32mx/4.5.2/../../../../pic32mx/lib\libpic32.a(vector35.o)

.text%z322      0x00000000        0x0
 .text          0x00000000        0x0 c:/program files/microchip/xc32/v1.31/bin/../lib/gcc/pic32mx/4.5.2/../../../../pic32mx/lib\libpic32.a(vector34.o)

.text%z323      0x00000000        0x0
 .text          0x00000000        0x0 c:/program files/microchip/xc32/v1.31/bin/../lib/gcc/pic32mx/4.5.2/../../../../pic32mx/lib\libpic32.a(vector33.o)

.text%z324      0x00000000        0x0
 .text          0x00000000        0x0 c:/program files/microchip/xc32/v1.31/bin/../lib/gcc/pic32mx/4.5.2/../../../../pic32mx/lib\libpic32.a(vector32.o)

.text%z325      0x00000000        0x0
 .text          0x00000000        0x0 c:/program files/microchip/xc32/v1.31/bin/../lib/gcc/pic32mx/4.5.2/../../../../pic32mx/lib\libpic32.a(vector31.o)

.text%z326      0x00000000        0x0
 .text          0x00000000        0x0 c:/program files/microchip/xc32/v1.31/bin/../lib/gcc/pic32mx/4.5.2/../../../../pic32mx/lib\libpic32.a(vector30.o)

.text%z327      0x00000000        0x0
 .text          0x00000000        0x0 c:/program files/microchip/xc32/v1.31/bin/../lib/gcc/pic32mx/4.5.2/../../../../pic32mx/lib\libpic32.a(vector29.o)

.text%z328      0x00000000        0x0
 .text          0x00000000        0x0 c:/program files/microchip/xc32/v1.31/bin/../lib/gcc/pic32mx/4.5.2/../../../../pic32mx/lib\libpic32.a(vector28.o)

.text%z329      0x00000000        0x0
 .text          0x00000000        0x0 c:/program files/microchip/xc32/v1.31/bin/../lib/gcc/pic32mx/4.5.2/../../../../pic32mx/lib\libpic32.a(vector27.o)

.text%z330      0x00000000        0x0
 .text          0x00000000        0x0 c:/program files/microchip/xc32/v1.31/bin/../lib/gcc/pic32mx/4.5.2/../../../../pic32mx/lib\libpic32.a(vector26.o)

.text%z331      0x00000000        0x0
 .text          0x00000000        0x0 c:/program files/microchip/xc32/v1.31/bin/../lib/gcc/pic32mx/4.5.2/../../../../pic32mx/lib\libpic32.a(vector25.o)

.text%z332      0x00000000        0x0
 .text          0x00000000        0x0 c:/program files/microchip/xc32/v1.31/bin/../lib/gcc/pic32mx/4.5.2/../../../../pic32mx/lib\libpic32.a(vector24.o)

.text%z333      0x00000000        0x0
 .text          0x00000000        0x0 c:/program files/microchip/xc32/v1.31/bin/../lib/gcc/pic32mx/4.5.2/../../../../pic32mx/lib\libpic32.a(vector23.o)

.text%z334      0x00000000        0x0
 .text          0x00000000        0x0 c:/program files/microchip/xc32/v1.31/bin/../lib/gcc/pic32mx/4.5.2/../../../../pic32mx/lib\libpic32.a(vector22.o)

.text%z335      0x00000000        0x0
 .text          0x00000000        0x0 c:/program files/microchip/xc32/v1.31/bin/../lib/gcc/pic32mx/4.5.2/../../../../pic32mx/lib\libpic32.a(vector21.o)

.text%z336      0x00000000        0x0
 .text          0x00000000        0x0 c:/program files/microchip/xc32/v1.31/bin/../lib/gcc/pic32mx/4.5.2/../../../../pic32mx/lib\libpic32.a(vector20.o)

.text%z337      0x00000000        0x0
 .text          0x00000000        0x0 c:/program files/microchip/xc32/v1.31/bin/../lib/gcc/pic32mx/4.5.2/../../../../pic32mx/lib\libpic32.a(vector19.o)

.text%z338      0x00000000        0x0
 .text          0x00000000        0x0 c:/program files/microchip/xc32/v1.31/bin/../lib/gcc/pic32mx/4.5.2/../../../../pic32mx/lib\libpic32.a(vector18.o)

.text%z339      0x00000000        0x0
 .text          0x00000000        0x0 c:/program files/microchip/xc32/v1.31/bin/../lib/gcc/pic32mx/4.5.2/../../../../pic32mx/lib\libpic32.a(vector17.o)

.text%z340      0x00000000        0x0
 .text          0x00000000        0x0 c:/program files/microchip/xc32/v1.31/bin/../lib/gcc/pic32mx/4.5.2/../../../../pic32mx/lib\libpic32.a(vector16.o)

.text%z341      0x00000000        0x0
 .text          0x00000000        0x0 c:/program files/microchip/xc32/v1.31/bin/../lib/gcc/pic32mx/4.5.2/../../../../pic32mx/lib\libpic32.a(vector15.o)

.text%z342      0x00000000        0x0
 .text          0x00000000        0x0 c:/program files/microchip/xc32/v1.31/bin/../lib/gcc/pic32mx/4.5.2/../../../../pic32mx/lib\libpic32.a(vector14.o)

.text%z343      0x00000000        0x0
 .text          0x00000000        0x0 c:/program files/microchip/xc32/v1.31/bin/../lib/gcc/pic32mx/4.5.2/../../../../pic32mx/lib\libpic32.a(vector13.o)

.text%z344      0x00000000        0x0
 .text          0x00000000        0x0 c:/program files/microchip/xc32/v1.31/bin/../lib/gcc/pic32mx/4.5.2/../../../../pic32mx/lib\libpic32.a(vector12.o)

.text%z345      0x00000000        0x0
 .text          0x00000000        0x0 c:/program files/microchip/xc32/v1.31/bin/../lib/gcc/pic32mx/4.5.2/../../../../pic32mx/lib\libpic32.a(vector11.o)

.text%z346      0x00000000        0x0
 .text          0x00000000        0x0 c:/program files/microchip/xc32/v1.31/bin/../lib/gcc/pic32mx/4.5.2/../../../../pic32mx/lib\libpic32.a(vector10.o)

.text%z347      0x00000000        0x0
 .text          0x00000000        0x0 c:/program files/microchip/xc32/v1.31/bin/../lib/gcc/pic32mx/4.5.2/../../../../pic32mx/lib\libpic32.a(vector9.o)

.text%z348      0x00000000        0x0
 .text          0x00000000        0x0 c:/program files/microchip/xc32/v1.31/bin/../lib/gcc/pic32mx/4.5.2/../../../../pic32mx/lib\libpic32.a(vector8.o)

.text%z349      0x00000000        0x0
 .text          0x00000000        0x0 c:/program files/microchip/xc32/v1.31/bin/../lib/gcc/pic32mx/4.5.2/../../../../pic32mx/lib\libpic32.a(vector7.o)

.text%z350      0x00000000        0x0
 .text          0x00000000        0x0 c:/program files/microchip/xc32/v1.31/bin/../lib/gcc/pic32mx/4.5.2/../../../../pic32mx/lib\libpic32.a(vector6.o)

.text%z351      0x00000000        0x0
 .text          0x00000000        0x0 c:/program files/microchip/xc32/v1.31/bin/../lib/gcc/pic32mx/4.5.2/../../../../pic32mx/lib\libpic32.a(vector5.o)

.text%z352      0x00000000        0x0
 .text          0x00000000        0x0 c:/program files/microchip/xc32/v1.31/bin/../lib/gcc/pic32mx/4.5.2/../../../../pic32mx/lib\libpic32.a(vector3.o)

.text%z353      0x00000000        0x0
 .text          0x00000000        0x0 c:/program files/microchip/xc32/v1.31/bin/../lib/gcc/pic32mx/4.5.2/../../../../pic32mx/lib\libpic32.a(vector2.o)

.text%z354      0x00000000        0x0
 .text          0x00000000        0x0 c:/program files/microchip/xc32/v1.31/bin/../lib/gcc/pic32mx/4.5.2/../../../../pic32mx/lib\libpic32.a(vector1.o)

.text%z355      0x00000000        0x0
 .text          0x00000000        0x0 c:/program files/microchip/xc32/v1.31/bin/../lib/gcc/pic32mx/4.5.2/../../../../pic32mx/lib\libpic32.a(vector0.o)

.text%z356      0x00000000        0x0
 .text          0x00000000        0x0 c:/program files/microchip/xc32/v1.31/bin/../lib/gcc/pic32mx/4.5.2/../../../../pic32mx/lib\libpic32.a(general-exception.o)

.text%z357      0x00000000        0x0
 .text          0x00000000        0x0 c:/program files/microchip/xc32/v1.31/bin/../lib/gcc/pic32mx/4.5.2/../../../../pic32mx/lib\libpic32.a(default-on-bootstrap.o)

.text%z358      0x00000000        0x0
 .text          0x00000000        0x0 c:/program files/microchip/xc32/v1.31/bin/../lib/gcc/pic32mx/4.5.2/../../../../pic32mx/lib\libpic32.a(default-on-reset.o)

.text%z359      0x00000000        0x0
 .text          0x00000000        0x0 c:/program files/microchip/xc32/v1.31/bin/../lib/gcc/pic32mx/4.5.2/../../../../pic32mx/lib\libpic32.a(default-bootstrap-exception-handler.o)

.text%z360      0x00000000        0x0
 .text          0x00000000        0x0 c:/program files/microchip/xc32/v1.31/bin/../lib/gcc/pic32mx/4.5.2/../../../../pic32mx/lib\libmchp_peripheral_32MX795F512L.a(int_enable_interrupts_lib.o)

.text%z361      0x00000000        0x0
 .text          0x00000000        0x0 c:/program files/microchip/xc32/v1.31/bin/../lib/gcc/pic32mx/4.5.2/../../../../pic32mx/lib\libmchp_peripheral_32MX795F512L.a(_ports_tbl_libp.o)

.text%z362      0x00000000        0x0
 .text          0x00000000        0x0 c:/program files/microchip/xc32/v1.31/bin/../lib/gcc/pic32mx/4.5.2/../../../../pic32mx/lib\libmchp_peripheral_32MX795F512L.a(port_set_pins_digital_out_lib.o)

.text%z363      0x00000000        0x0
 .text          0x00000000        0x0 c:/program files/microchip/xc32/v1.31/bin/../lib/gcc/pic32mx/4.5.2/../../../../pic32mx/lib\libmchp_peripheral_32MX795F512L.a(port_set_pins_digital_in_lib.o)

.text%z364      0x00000000        0x0
 .text          0x00000000        0x0 c:/program files/microchip/xc32/v1.31/bin/../lib/gcc/pic32mx/4.5.2/../../../../pic32mx/lib\libmchp_peripheral_32MX795F512L.a(int_tbl_lib.o)

.text%z365      0x00000000        0x0
 .text          0x00000000        0x0 c:/program files/microchip/xc32/v1.31/bin/../lib/gcc/pic32mx/4.5.2/../../../../pic32mx/lib\libmchp_peripheral_32MX795F512L.a(int_enable_mv_int_lib.o)

.text%z366      0x00000000        0x0
 .text          0x00000000        0x0 c:/program files/microchip/xc32/v1.31/bin/../lib/gcc/pic32mx/4.5.2/../../../../pic32mx/lib\libmchp_peripheral_32MX795F512L.a(int_restore_interrupts_lib.o)

.text%z367      0x00000000        0x0
 .text          0x00000000        0x0 c:/program files/microchip/xc32/v1.31/bin/../lib/gcc/pic32mx/4.5.2/../../../../pic32mx/lib\libmchp_peripheral_32MX795F512L.a(int_disable_interrupts_lib.o)

.text%z368      0x00000000        0x0
 .text          0x00000000        0x0 c:/program files/microchip/xc32/v1.31/bin/../lib/gcc/pic32mx/4.5.2/../../../../pic32mx/lib\libmchp_peripheral_32MX795F512L.a(pcache.o)

.text%z369      0x00000000        0x0
 .text          0x00000000        0x0 c:/program files/microchip/xc32/v1.31/bin/../lib/gcc/pic32mx/4.5.2/../../../../pic32mx/lib\libmchp_peripheral_32MX795F512L.a(soft_reset_lib.o)

.text%z370      0x00000000        0x0
 .text          0x00000000        0x0 c:/program files/microchip/xc32/v1.31/bin/../lib/gcc/pic32mx/4.5.2/../../../../pic32mx/lib\libmchp_peripheral_32MX795F512L.a(eth_miim_access.o)

.text%z371      0x00000000        0x0
 .text          0x00000000        0x0 c:/program files/microchip/xc32/v1.31/bin/../lib/gcc/pic32mx/4.5.2/../../../../pic32mx/lib\libmchp_peripheral_32MX795F512L.a(_eth_append_busy_list_lib.o)

.text%z372      0x00000000        0x0
 .text          0x00000000        0x0 c:/program files/microchip/xc32/v1.31/bin/../lib/gcc/pic32mx/4.5.2/../../../../pic32mx/lib\libmchp_peripheral_32MX795F512L.a(eth_tx_packet_lib.o)

.text%z373      0x00000000        0x0
 .text          0x00000000        0x0 c:/program files/microchip/xc32/v1.31/bin/../lib/gcc/pic32mx/4.5.2/../../../../pic32mx/lib\libmchp_peripheral_32MX795F512L.a(eth_rx_set_buffer_size_lib.o)

.text%z374      0x00000000        0x0
 .text          0x00000000        0x0 c:/program files/microchip/xc32/v1.31/bin/../lib/gcc/pic32mx/4.5.2/../../../../pic32mx/lib\libmchp_peripheral_32MX795F512L.a(eth_rx_get_packet_lib.o)

.text%z375      0x00000000        0x0
 .text          0x00000000        0x0 c:/program files/microchip/xc32/v1.31/bin/../lib/gcc/pic32mx/4.5.2/../../../../pic32mx/lib\libmchp_peripheral_32MX795F512L.a(eth_rx_filters_lib.o)

.text%z376      0x00000000        0x0
 .text          0x00000000        0x0 c:/program files/microchip/xc32/v1.31/bin/../lib/gcc/pic32mx/4.5.2/../../../../pic32mx/lib\libmchp_peripheral_32MX795F512L.a(eth_rx_buffers_append_lib.o)

.text%z377      0x00000000        0x0
 .text          0x00000000        0x0 c:/program files/microchip/xc32/v1.31/bin/../lib/gcc/pic32mx/4.5.2/../../../../pic32mx/lib\libmchp_peripheral_32MX795F512L.a(eth_mac_set_address_max_lib.o)

.text%z378      0x00000000        0x0
 .text          0x00000000        0x0 c:/program files/microchip/xc32/v1.31/bin/../lib/gcc/pic32mx/4.5.2/../../../../pic32mx/lib\libmchp_peripheral_32MX795F512L.a(eth_mac_open_lib.o)

.text%z379      0x00000000        0x0
 .text          0x00000000        0x0 c:/program files/microchip/xc32/v1.31/bin/../lib/gcc/pic32mx/4.5.2/../../../../pic32mx/lib\libmchp_peripheral_32MX795F512L.a(eth_init_lib.o)

.text%z380      0x00000000        0x0
 .text          0x00000000        0x0 c:/program files/microchip/xc32/v1.31/bin/../lib/gcc/pic32mx/4.5.2/../../../../pic32mx/lib\libmchp_peripheral_32MX795F512L.a(eth_descriptors_add_lib.o)

.text%z381      0x00000000        0x0
 .text          0x00000000        0x0 c:/program files/microchip/xc32/v1.31/bin/../lib/gcc/pic32mx/4.5.2/../../../../pic32mx/lib\libmchp_peripheral_32MX795F512L.a(eth_ack_packet_lib.o)

.text%z382      0x00000000        0x0
 .text          0x00000000        0x0 c:/program files/microchip/xc32/v1.31/bin/../lib/gcc/pic32mx/4.5.2/../../../../pic32mx/lib\libmchp_peripheral.a(read_core_timer_lib.o)

.text%z383      0x00000000        0x0
 .text          0x00000000        0x0 c:/program files/microchip/xc32/v1.31/bin/../lib/gcc/pic32mx/4.5.2/../../../../pic32mx/lib/./proc/32MX795F512L\processor.o

.text%z384      0x00000000        0x0
 .text          0x00000000        0x0 c:/program files/microchip/xc32/v1.31/bin/../lib/gcc/pic32mx/4.5.2/../../../../pic32mx/lib/./proc/32MX795F512L\default_isr_vectors.o

.text%z385      0x00000000        0x0
 .text          0x00000000        0x0 build/XC32-PIC32_ETH_SK_ETH795/production/_ext/1360937237/gva_dmx.o

.text%z386      0x00000000        0x0
 .text          0x00000000        0x0 build/XC32-PIC32_ETH_SK_ETH795/production/_ext/1360937237/dmx.o

.text%z387      0x00000000        0x0
 .text          0x00000000        0x0 build/XC32-PIC32_ETH_SK_ETH795/production/_ext/1840844407/UART.o

.text%z388      0x00000000        0x0
 .text          0x00000000        0x0 build/XC32-PIC32_ETH_SK_ETH795/production/_ext/1840844407/Telnet.o

.text%z389      0x00000000        0x0
 .text          0x00000000        0x0 build/XC32-PIC32_ETH_SK_ETH795/production/_ext/1840844407/Random.o

.text%z390      0x00000000        0x0
 .text          0x00000000        0x0 build/XC32-PIC32_ETH_SK_ETH795/production/_ext/1472/MPFSImg2.o

.text%z391      0x00000000        0x0
 .text          0x00000000        0x0 build/XC32-PIC32_ETH_SK_ETH795/production/_ext/1840844407/FileSystem.o

.text%z392      0x00000000        0x0
 .text          0x00000000        0x0 build/XC32-PIC32_ETH_SK_ETH795/production/_ext/1840844407/DNSs.o

.text%z393      0x00000000        0x0
 .text          0x00000000        0x0 build/XC32-PIC32_ETH_SK_ETH795/production/_ext/1840844407/BigInt_helper_PIC32.o

.text%z394      0x00000000        0x0
 .text          0x00000000        0x0 build/XC32-PIC32_ETH_SK_ETH795/production/_ext/1840844407/BigInt.o

.text%z395      0x00000000        0x0
 .text          0x00000000        0x0 build/XC32-PIC32_ETH_SK_ETH795/production/_ext/1840844407/AutoIP.o

.text%z396      0x00000000        0x0
 .text          0x00000000        0x0 build/XC32-PIC32_ETH_SK_ETH795/production/_ext/1840844407/ARCFOUR.o

.text%z397      0x00000000        0x0
 .text          0x00000000        0x0 c:/program files/microchip/xc32/v1.31/bin/../lib/gcc/pic32mx/4.5.2/../../../../pic32mx/lib/./proc/32MX795F512L/crt0_mips32r2.o
